CCS PCM C Compiler, Version 5.076, 56587               30-nov-24 14:25

               Filename:   C:\projects\trabalho_final_microcontroladores\main.lst

               ROM used:   3810 words (47%)
                           Largest free fragment is 2048
               RAM used:   54 (15%) at main() level
                           64 (17%) worst case
               Stack used: 4 locations (3 in main + 1 for interrupts)
               Stack size: 8

*
0000:  MOVLW  0D
0001:  MOVWF  0A
0002:  GOTO   540
0003:  NOP
0004:  MOVWF  7F
0005:  SWAPF  03,W
0006:  CLRF   03
0007:  MOVWF  21
0008:  MOVF   0A,W
0009:  MOVWF  20
000A:  CLRF   0A
000B:  MOVF   04,W
000C:  MOVWF  22
000D:  MOVF   77,W
000E:  MOVWF  23
000F:  MOVF   78,W
0010:  MOVWF  24
0011:  MOVF   79,W
0012:  MOVWF  25
0013:  MOVF   7A,W
0014:  MOVWF  26
0015:  BCF    03.7
0016:  BCF    03.5
0017:  BTFSS  0B.5
0018:  GOTO   01B
0019:  BTFSC  0B.2
001A:  GOTO   02C
001B:  MOVF   22,W
001C:  MOVWF  04
001D:  MOVF   23,W
001E:  MOVWF  77
001F:  MOVF   24,W
0020:  MOVWF  78
0021:  MOVF   25,W
0022:  MOVWF  79
0023:  MOVF   26,W
0024:  MOVWF  7A
0025:  MOVF   20,W
0026:  MOVWF  0A
0027:  SWAPF  21,W
0028:  MOVWF  03
0029:  SWAPF  7F,F
002A:  SWAPF  7F,W
002B:  RETFIE
002C:  BCF    0A.3
002D:  BCF    0A.4
002E:  GOTO   52F
.................... #include <main.h> 
.................... #include <16F877A.h> 
.................... //////////// Standard Header file for the PIC16F877A device //////////////// 
.................... /////////////////////////////////////////////////////////////////////////// 
.................... ////        (C) Copyright 1996, 2014 Custom Computer Services          //// 
.................... //// This source code may only be used by licensed users of the CCS C  //// 
.................... //// compiler.  This source code may only be distributed to other      //// 
.................... //// licensed users of the CCS C compiler.  No other use, reproduction //// 
.................... //// or distribution is permitted without written permission.          //// 
.................... //// Derivative programs created using this software in object code    //// 
.................... //// form are not restricted in any way.                               //// 
.................... /////////////////////////////////////////////////////////////////////////// 
.................... #device PIC16F877A 
002F:  BCF    0A.0
0030:  BCF    0A.1
0031:  BCF    0A.2
0032:  ADDWF  02,F
0033:  RETLW  08
0034:  RETLW  00
0035:  RETLW  00
0036:  RETLW  01
0037:  RETLW  02
0038:  RETLW  04
0039:  RETLW  48
003A:  RETLW  40
003B:  RETLW  40
003C:  RETLW  41
003D:  RETLW  42
003E:  RETLW  44
003F:  BCF    0A.0
0040:  BCF    0A.1
0041:  BCF    0A.2
0042:  ADDWF  02,F
0043:  RETLW  00
0044:  RETLW  08
0045:  RETLW  01
0046:  RETLW  00
0047:  RETLW  00
0048:  RETLW  00
0049:  RETLW  00
004A:  RETLW  48
004B:  RETLW  41
004C:  RETLW  00
004D:  RETLW  00
004E:  RETLW  00
004F:  BCF    0A.0
0050:  BCF    0A.1
0051:  BCF    0A.2
0052:  ADDWF  02,F
0053:  RETLW  00
0054:  RETLW  01
0055:  RETLW  08
0056:  RETLW  00
0057:  RETLW  00
0058:  RETLW  00
0059:  RETLW  00
005A:  RETLW  41
005B:  RETLW  48
005C:  RETLW  00
005D:  RETLW  00
005E:  RETLW  00
005F:  BCF    0A.0
0060:  BCF    0A.1
0061:  BCF    0A.2
0062:  ADDWF  02,F
0063:  RETLW  01
0064:  RETLW  00
0065:  RETLW  00
0066:  RETLW  08
0067:  RETLW  10
0068:  RETLW  20
0069:  RETLW  41
006A:  RETLW  40
006B:  RETLW  40
006C:  RETLW  48
006D:  RETLW  50
006E:  RETLW  60
006F:  BCF    0A.0
0070:  BCF    0A.1
0071:  BCF    0A.2
0072:  ADDWF  02,F
0073:  RETLW  04
0074:  RETLW  03
0075:  RETLW  02
0076:  RETLW  01
0077:  RETLW  00
0078:  RETLW  03
0079:  RETLW  02
007A:  RETLW  01
007B:  RETLW  00
007C:  RETLW  03
007D:  RETLW  02
007E:  RETLW  01
007F:  RETLW  00
0080:  RETLW  03
0081:  RETLW  02
0082:  RETLW  01
0083:  RETLW  00
0084:  RETLW  05
0085:  RETLW  04
0086:  RETLW  03
0087:  RETLW  02
0088:  RETLW  01
0089:  RETLW  00
008A:  RETLW  05
008B:  RETLW  04
008C:  RETLW  03
008D:  RETLW  02
008E:  RETLW  01
008F:  RETLW  00
0090:  RETLW  08
0091:  RETLW  07
0092:  RETLW  06
0093:  RETLW  05
0094:  RETLW  04
0095:  RETLW  03
0096:  RETLW  02
0097:  RETLW  01
0098:  RETLW  00
0099:  RETLW  08
009A:  RETLW  07
009B:  RETLW  06
009C:  RETLW  05
009D:  RETLW  04
009E:  RETLW  03
009F:  RETLW  02
00A0:  RETLW  01
00A1:  RETLW  00
00A2:  RETLW  05
00A3:  RETLW  04
00A4:  RETLW  03
00A5:  RETLW  02
00A6:  RETLW  01
00A7:  RETLW  00
00A8:  RETLW  0A
00A9:  RETLW  0B
00AA:  RETLW  0B
00AB:  RETLW  0C
00AC:  RETLW  0C
00AD:  BCF    0A.0
00AE:  BCF    0A.1
00AF:  BCF    0A.2
00B0:  ADDWF  02,F
00B1:  RETLW  03
00B2:  RETLW  02
00B3:  RETLW  01
00B4:  RETLW  00
00B5:  RETLW  00
00B6:  RETLW  02
00B7:  RETLW  01
00B8:  RETLW  00
00B9:  RETLW  06
00BA:  RETLW  05
00BB:  RETLW  04
00BC:  RETLW  03
00BD:  RETLW  02
00BE:  RETLW  01
00BF:  RETLW  00
00C0:  RETLW  04
00C1:  RETLW  03
00C2:  RETLW  02
00C3:  RETLW  01
00C4:  RETLW  00
00C5:  RETLW  02
00C6:  RETLW  01
00C7:  RETLW  00
00C8:  RETLW  02
00C9:  RETLW  01
00CA:  RETLW  00
00CB:  RETLW  03
00CC:  RETLW  02
00CD:  RETLW  01
00CE:  RETLW  00
00CF:  RETLW  02
00D0:  RETLW  01
00D1:  RETLW  00
00D2:  RETLW  01
00D3:  RETLW  00
00D4:  RETLW  01
00D5:  RETLW  00
00D6:  RETLW  04
00D7:  RETLW  03
00D8:  RETLW  02
00D9:  RETLW  01
00DA:  RETLW  00
00DB:  RETLW  02
00DC:  RETLW  01
00DD:  RETLW  00
00DE:  RETLW  05
00DF:  RETLW  04
00E0:  RETLW  03
00E1:  RETLW  02
00E2:  RETLW  01
00E3:  RETLW  00
00E4:  RETLW  0A
00E5:  RETLW  0A
00E6:  RETLW  0A
00E7:  RETLW  0B
00E8:  RETLW  0B
00E9:  RETLW  0C
00EA:  RETLW  0C
00EB:  BCF    0A.0
00EC:  BCF    0A.1
00ED:  BCF    0A.2
00EE:  ADDLW  F2
00EF:  BTFSC  03.0
00F0:  INCF   0A,F
00F1:  MOVWF  02
00F2:  RETLW  03
00F3:  RETLW  02
00F4:  RETLW  01
00F5:  RETLW  00
00F6:  RETLW  00
00F7:  RETLW  02
00F8:  RETLW  01
00F9:  RETLW  00
00FA:  RETLW  06
00FB:  RETLW  05
00FC:  RETLW  04
00FD:  RETLW  03
00FE:  RETLW  02
00FF:  RETLW  01
0100:  RETLW  00
0101:  RETLW  02
0102:  RETLW  01
0103:  RETLW  00
0104:  RETLW  05
0105:  RETLW  04
0106:  RETLW  03
0107:  RETLW  02
0108:  RETLW  01
0109:  RETLW  00
010A:  RETLW  02
010B:  RETLW  01
010C:  RETLW  00
010D:  RETLW  02
010E:  RETLW  01
010F:  RETLW  00
0110:  RETLW  07
0111:  RETLW  06
0112:  RETLW  05
0113:  RETLW  04
0114:  RETLW  03
0115:  RETLW  02
0116:  RETLW  01
0117:  RETLW  00
0118:  RETLW  05
0119:  RETLW  04
011A:  RETLW  03
011B:  RETLW  02
011C:  RETLW  01
011D:  RETLW  00
011E:  RETLW  02
011F:  RETLW  01
0120:  RETLW  00
0121:  RETLW  01
0122:  RETLW  00
0123:  RETLW  0A
0124:  RETLW  0A
0125:  RETLW  0A
0126:  RETLW  0A
0127:  RETLW  0A
0128:  RETLW  0B
0129:  RETLW  0B
012A:  RETLW  0C
012B:  RETLW  0C
012C:  BSF    0A.0
012D:  BCF    0A.1
012E:  BCF    0A.2
012F:  ADDWF  02,F
0130:  RETLW  02
0131:  RETLW  01
0132:  RETLW  00
0133:  RETLW  01
0134:  RETLW  00
0135:  RETLW  01
0136:  RETLW  00
0137:  RETLW  01
0138:  RETLW  00
0139:  RETLW  09
013A:  RETLW  08
013B:  RETLW  07
013C:  RETLW  06
013D:  RETLW  05
013E:  RETLW  04
013F:  RETLW  03
0140:  RETLW  02
0141:  RETLW  01
0142:  RETLW  00
0143:  RETLW  05
0144:  RETLW  04
0145:  RETLW  03
0146:  RETLW  02
0147:  RETLW  01
0148:  RETLW  00
0149:  RETLW  03
014A:  RETLW  02
014B:  RETLW  01
014C:  RETLW  00
014D:  RETLW  03
014E:  RETLW  02
014F:  RETLW  01
0150:  RETLW  00
0151:  RETLW  02
0152:  RETLW  01
0153:  RETLW  00
0154:  RETLW  04
0155:  RETLW  03
0156:  RETLW  02
0157:  RETLW  01
0158:  RETLW  00
0159:  RETLW  08
015A:  RETLW  07
015B:  RETLW  06
015C:  RETLW  05
015D:  RETLW  04
015E:  RETLW  03
015F:  RETLW  02
0160:  RETLW  01
0161:  RETLW  00
0162:  RETLW  0A
0163:  RETLW  0A
0164:  RETLW  0A
0165:  RETLW  0A
0166:  RETLW  0B
0167:  RETLW  0B
0168:  RETLW  0C
0169:  RETLW  0C
016A:  BSF    0A.0
016B:  BCF    0A.1
016C:  BCF    0A.2
016D:  ADDWF  02,F
016E:  RETLW  01
016F:  RETLW  00
0170:  RETLW  05
0171:  RETLW  04
0172:  RETLW  03
0173:  RETLW  02
0174:  RETLW  01
0175:  RETLW  00
0176:  RETLW  02
0177:  RETLW  01
0178:  RETLW  00
0179:  RETLW  01
017A:  RETLW  00
017B:  RETLW  05
017C:  RETLW  04
017D:  RETLW  03
017E:  RETLW  02
017F:  RETLW  01
0180:  RETLW  00
0181:  RETLW  02
0182:  RETLW  01
0183:  RETLW  00
0184:  RETLW  01
0185:  RETLW  00
0186:  RETLW  02
0187:  RETLW  01
0188:  RETLW  00
0189:  RETLW  01
018A:  RETLW  00
018B:  RETLW  01
018C:  RETLW  00
018D:  RETLW  01
018E:  RETLW  00
018F:  RETLW  01
0190:  RETLW  00
0191:  RETLW  08
0192:  RETLW  07
0193:  RETLW  06
0194:  RETLW  05
0195:  RETLW  04
0196:  RETLW  03
0197:  RETLW  02
0198:  RETLW  01
0199:  RETLW  00
019A:  RETLW  07
019B:  RETLW  06
019C:  RETLW  05
019D:  RETLW  04
019E:  RETLW  03
019F:  RETLW  02
01A0:  RETLW  01
01A1:  RETLW  00
01A2:  RETLW  0A
01A3:  RETLW  0A
01A4:  RETLW  0A
01A5:  RETLW  0A
01A6:  RETLW  0B
01A7:  RETLW  0B
01A8:  RETLW  0B
01A9:  RETLW  0C
01AA:  RETLW  0C
01AB:  BSF    0A.0
01AC:  BCF    0A.1
01AD:  BCF    0A.2
01AE:  ADDWF  02,F
01AF:  RETLW  02
01B0:  RETLW  01
01B1:  RETLW  00
01B2:  RETLW  03
01B3:  RETLW  02
01B4:  RETLW  01
01B5:  RETLW  00
01B6:  RETLW  02
01B7:  RETLW  01
01B8:  RETLW  00
01B9:  RETLW  01
01BA:  RETLW  00
01BB:  RETLW  01
01BC:  RETLW  00
01BD:  RETLW  03
01BE:  RETLW  02
01BF:  RETLW  01
01C0:  RETLW  00
01C1:  RETLW  02
01C2:  RETLW  01
01C3:  RETLW  00
01C4:  RETLW  01
01C5:  RETLW  00
01C6:  RETLW  02
01C7:  RETLW  01
01C8:  RETLW  00
01C9:  RETLW  01
01CA:  RETLW  00
01CB:  RETLW  01
01CC:  RETLW  00
01CD:  RETLW  01
01CE:  RETLW  00
01CF:  RETLW  03
01D0:  RETLW  02
01D1:  RETLW  01
01D2:  RETLW  00
01D3:  RETLW  08
01D4:  RETLW  07
01D5:  RETLW  06
01D6:  RETLW  05
01D7:  RETLW  04
01D8:  RETLW  02
01D9:  RETLW  01
01DA:  RETLW  00
01DB:  RETLW  06
01DC:  RETLW  05
01DD:  RETLW  04
01DE:  RETLW  03
01DF:  RETLW  02
01E0:  RETLW  01
01E1:  RETLW  00
01E2:  RETLW  01
01E3:  RETLW  00
01E4:  RETLW  0A
01E5:  RETLW  0A
01E6:  RETLW  0A
01E7:  RETLW  0B
01E8:  RETLW  0B
01E9:  RETLW  0B
01EA:  RETLW  0C
01EB:  RETLW  0C
01EC:  BSF    0A.0
01ED:  BCF    0A.1
01EE:  BCF    0A.2
01EF:  ADDLW  F3
01F0:  BTFSC  03.0
01F1:  INCF   0A,F
01F2:  MOVWF  02
01F3:  RETLW  03
01F4:  RETLW  02
01F5:  RETLW  01
01F6:  RETLW  00
01F7:  RETLW  01
01F8:  RETLW  00
01F9:  RETLW  03
01FA:  RETLW  02
01FB:  RETLW  01
01FC:  RETLW  00
01FD:  RETLW  01
01FE:  RETLW  00
01FF:  RETLW  02
0200:  RETLW  01
0201:  RETLW  00
0202:  RETLW  01
0203:  RETLW  00
0204:  RETLW  03
0205:  RETLW  02
0206:  RETLW  01
0207:  RETLW  00
0208:  RETLW  01
0209:  RETLW  00
020A:  RETLW  03
020B:  RETLW  02
020C:  RETLW  01
020D:  RETLW  00
020E:  RETLW  01
020F:  RETLW  00
0210:  RETLW  07
0211:  RETLW  06
0212:  RETLW  05
0213:  RETLW  04
0214:  RETLW  03
0215:  RETLW  02
0216:  RETLW  01
0217:  RETLW  00
0218:  RETLW  01
0219:  RETLW  00
021A:  RETLW  01
021B:  RETLW  00
021C:  RETLW  02
021D:  RETLW  01
021E:  RETLW  00
021F:  RETLW  05
0220:  RETLW  04
0221:  RETLW  03
0222:  RETLW  02
0223:  RETLW  01
0224:  RETLW  00
0225:  RETLW  03
0226:  RETLW  02
0227:  RETLW  01
0228:  RETLW  00
0229:  RETLW  0A
022A:  RETLW  0A
022B:  RETLW  0B
022C:  RETLW  0B
022D:  RETLW  0B
022E:  RETLW  0C
022F:  RETLW  0C
0230:  BCF    0A.0
0231:  BSF    0A.1
0232:  BCF    0A.2
0233:  ADDWF  02,F
0234:  RETLW  04
0235:  RETLW  03
0236:  RETLW  02
0237:  RETLW  01
0238:  RETLW  00
0239:  RETLW  05
023A:  RETLW  04
023B:  RETLW  03
023C:  RETLW  02
023D:  RETLW  01
023E:  RETLW  00
023F:  RETLW  04
0240:  RETLW  03
0241:  RETLW  02
0242:  RETLW  01
0243:  RETLW  00
0244:  RETLW  05
0245:  RETLW  04
0246:  RETLW  03
0247:  RETLW  02
0248:  RETLW  01
0249:  RETLW  00
024A:  RETLW  03
024B:  RETLW  02
024C:  RETLW  01
024D:  RETLW  00
024E:  RETLW  01
024F:  RETLW  00
0250:  RETLW  01
0251:  RETLW  00
0252:  RETLW  07
0253:  RETLW  06
0254:  RETLW  05
0255:  RETLW  04
0256:  RETLW  03
0257:  RETLW  02
0258:  RETLW  01
0259:  RETLW  00
025A:  RETLW  01
025B:  RETLW  00
025C:  RETLW  01
025D:  RETLW  00
025E:  RETLW  01
025F:  RETLW  00
0260:  RETLW  04
0261:  RETLW  03
0262:  RETLW  02
0263:  RETLW  01
0264:  RETLW  00
0265:  RETLW  05
0266:  RETLW  04
0267:  RETLW  03
0268:  RETLW  02
0269:  RETLW  01
026A:  RETLW  00
026B:  RETLW  0A
026C:  RETLW  0B
026D:  RETLW  0B
026E:  RETLW  0B
026F:  RETLW  0C
0270:  RETLW  0C
0271:  BCF    0A.0
0272:  BSF    0A.1
0273:  BCF    0A.2
0274:  ADDWF  02,F
0275:  RETLW  02
0276:  RETLW  01
0277:  RETLW  00
0278:  RETLW  02
0279:  RETLW  01
027A:  RETLW  00
027B:  RETLW  02
027C:  RETLW  01
027D:  RETLW  00
027E:  RETLW  02
027F:  RETLW  01
0280:  RETLW  00
0281:  RETLW  03
0282:  RETLW  02
0283:  RETLW  01
0284:  RETLW  00
0285:  RETLW  03
0286:  RETLW  02
0287:  RETLW  01
0288:  RETLW  00
0289:  RETLW  02
028A:  RETLW  01
028B:  RETLW  00
028C:  RETLW  01
028D:  RETLW  00
028E:  RETLW  01
028F:  RETLW  00
0290:  RETLW  01
0291:  RETLW  00
0292:  RETLW  01
0293:  RETLW  00
0294:  RETLW  03
0295:  RETLW  02
0296:  RETLW  01
0297:  RETLW  00
0298:  RETLW  01
0299:  RETLW  00
029A:  RETLW  04
029B:  RETLW  03
029C:  RETLW  02
029D:  RETLW  01
029E:  RETLW  00
029F:  RETLW  06
02A0:  RETLW  05
02A1:  RETLW  04
02A2:  RETLW  03
02A3:  RETLW  02
02A4:  RETLW  01
02A5:  RETLW  00
02A6:  RETLW  02
02A7:  RETLW  01
02A8:  RETLW  00
02A9:  RETLW  02
02AA:  RETLW  01
02AB:  RETLW  00
02AC:  RETLW  05
02AD:  RETLW  04
02AE:  RETLW  03
02AF:  RETLW  02
02B0:  RETLW  01
02B1:  RETLW  00
02B2:  RETLW  02
02B3:  RETLW  01
02B4:  RETLW  00
02B5:  RETLW  02
02B6:  RETLW  01
02B7:  RETLW  00
02B8:  RETLW  02
02B9:  RETLW  01
02BA:  RETLW  00
02BB:  RETLW  02
02BC:  RETLW  01
02BD:  RETLW  00
02BE:  RETLW  04
02BF:  RETLW  03
02C0:  RETLW  02
02C1:  RETLW  01
02C2:  RETLW  00
02C3:  RETLW  02
02C4:  RETLW  01
02C5:  RETLW  00
02C6:  RETLW  05
02C7:  RETLW  04
02C8:  RETLW  03
02C9:  RETLW  02
02CA:  RETLW  01
02CB:  RETLW  00
02CC:  RETLW  02
02CD:  RETLW  01
02CE:  RETLW  00
02CF:  RETLW  01
02D0:  RETLW  00
02D1:  RETLW  01
02D2:  RETLW  00
02D3:  RETLW  01
02D4:  RETLW  00
02D5:  RETLW  01
02D6:  RETLW  00
02D7:  RETLW  01
02D8:  RETLW  00
02D9:  RETLW  0B
02DA:  RETLW  0B
02DB:  RETLW  0B
02DC:  RETLW  0C
02DD:  RETLW  0C
02DE:  BCF    0A.0
02DF:  BSF    0A.1
02E0:  BCF    0A.2
02E1:  ADDLW  E5
02E2:  BTFSC  03.0
02E3:  INCF   0A,F
02E4:  MOVWF  02
02E5:  RETLW  02
02E6:  RETLW  01
02E7:  RETLW  00
02E8:  RETLW  02
02E9:  RETLW  01
02EA:  RETLW  00
02EB:  RETLW  02
02EC:  RETLW  01
02ED:  RETLW  00
02EE:  RETLW  02
02EF:  RETLW  01
02F0:  RETLW  00
02F1:  RETLW  03
02F2:  RETLW  02
02F3:  RETLW  01
02F4:  RETLW  00
02F5:  RETLW  03
02F6:  RETLW  02
02F7:  RETLW  01
02F8:  RETLW  00
02F9:  RETLW  04
02FA:  RETLW  03
02FB:  RETLW  02
02FC:  RETLW  01
02FD:  RETLW  00
02FE:  RETLW  03
02FF:  RETLW  02
0300:  RETLW  01
0301:  RETLW  00
0302:  RETLW  03
0303:  RETLW  02
0304:  RETLW  01
0305:  RETLW  00
0306:  RETLW  01
0307:  RETLW  00
0308:  RETLW  01
0309:  RETLW  00
030A:  RETLW  02
030B:  RETLW  01
030C:  RETLW  00
030D:  RETLW  01
030E:  RETLW  00
030F:  RETLW  01
0310:  RETLW  00
0311:  RETLW  04
0312:  RETLW  03
0313:  RETLW  02
0314:  RETLW  01
0315:  RETLW  00
0316:  RETLW  02
0317:  RETLW  01
0318:  RETLW  00
0319:  RETLW  05
031A:  RETLW  04
031B:  RETLW  03
031C:  RETLW  02
031D:  RETLW  01
031E:  RETLW  00
031F:  RETLW  02
0320:  RETLW  01
0321:  RETLW  00
0322:  RETLW  02
0323:  RETLW  01
0324:  RETLW  00
0325:  RETLW  02
0326:  RETLW  01
0327:  RETLW  00
0328:  RETLW  02
0329:  RETLW  01
032A:  RETLW  00
032B:  RETLW  02
032C:  RETLW  01
032D:  RETLW  00
032E:  RETLW  03
032F:  RETLW  02
0330:  RETLW  01
0331:  RETLW  00
0332:  RETLW  01
0333:  RETLW  00
0334:  RETLW  02
0335:  RETLW  01
0336:  RETLW  00
0337:  RETLW  03
0338:  RETLW  02
0339:  RETLW  01
033A:  RETLW  00
033B:  RETLW  02
033C:  RETLW  01
033D:  RETLW  00
033E:  RETLW  02
033F:  RETLW  01
0340:  RETLW  00
0341:  RETLW  01
0342:  RETLW  00
0343:  RETLW  0A
0344:  RETLW  0A
0345:  RETLW  0A
0346:  RETLW  0A
0347:  RETLW  0A
0348:  RETLW  0A
0349:  RETLW  0B
034A:  RETLW  0B
034B:  RETLW  0B
034C:  RETLW  0C
034D:  RETLW  0C
034E:  BSF    0A.0
034F:  BSF    0A.1
0350:  BCF    0A.2
0351:  ADDWF  02,F
0352:  RETLW  02
0353:  RETLW  01
0354:  RETLW  00
0355:  RETLW  02
0356:  RETLW  01
0357:  RETLW  00
0358:  RETLW  02
0359:  RETLW  01
035A:  RETLW  00
035B:  RETLW  02
035C:  RETLW  01
035D:  RETLW  00
035E:  RETLW  03
035F:  RETLW  02
0360:  RETLW  01
0361:  RETLW  00
0362:  RETLW  06
0363:  RETLW  05
0364:  RETLW  04
0365:  RETLW  03
0366:  RETLW  02
0367:  RETLW  01
0368:  RETLW  00
0369:  RETLW  03
036A:  RETLW  02
036B:  RETLW  01
036C:  RETLW  00
036D:  RETLW  01
036E:  RETLW  00
036F:  RETLW  01
0370:  RETLW  00
0371:  RETLW  01
0372:  RETLW  00
0373:  RETLW  02
0374:  RETLW  01
0375:  RETLW  00
0376:  RETLW  01
0377:  RETLW  00
0378:  RETLW  01
0379:  RETLW  00
037A:  RETLW  03
037B:  RETLW  02
037C:  RETLW  01
037D:  RETLW  00
037E:  RETLW  01
037F:  RETLW  00
0380:  RETLW  02
0381:  RETLW  01
0382:  RETLW  00
0383:  RETLW  05
0384:  RETLW  04
0385:  RETLW  03
0386:  RETLW  02
0387:  RETLW  01
0388:  RETLW  00
0389:  RETLW  02
038A:  RETLW  01
038B:  RETLW  00
038C:  RETLW  02
038D:  RETLW  01
038E:  RETLW  00
038F:  RETLW  02
0390:  RETLW  01
0391:  RETLW  00
0392:  RETLW  02
0393:  RETLW  01
0394:  RETLW  00
0395:  RETLW  02
0396:  RETLW  01
0397:  RETLW  00
0398:  RETLW  02
0399:  RETLW  01
039A:  RETLW  00
039B:  RETLW  02
039C:  RETLW  01
039D:  RETLW  00
039E:  RETLW  03
039F:  RETLW  02
03A0:  RETLW  01
03A1:  RETLW  00
03A2:  RETLW  02
03A3:  RETLW  01
03A4:  RETLW  00
03A5:  RETLW  01
03A6:  RETLW  00
03A7:  RETLW  02
03A8:  RETLW  01
03A9:  RETLW  00
03AA:  RETLW  03
03AB:  RETLW  02
03AC:  RETLW  01
03AD:  RETLW  00
03AE:  RETLW  01
03AF:  RETLW  00
03B0:  RETLW  01
03B1:  RETLW  00
03B2:  RETLW  0A
03B3:  RETLW  0A
03B4:  RETLW  0A
03B5:  RETLW  0A
03B6:  RETLW  0B
03B7:  RETLW  0B
03B8:  RETLW  0B
03B9:  RETLW  0C
03BA:  RETLW  0C
03BB:  BSF    0A.0
03BC:  BSF    0A.1
03BD:  BCF    0A.2
03BE:  ADDLW  C2
03BF:  BTFSC  03.0
03C0:  INCF   0A,F
03C1:  MOVWF  02
03C2:  RETLW  02
03C3:  RETLW  01
03C4:  RETLW  00
03C5:  RETLW  02
03C6:  RETLW  01
03C7:  RETLW  00
03C8:  RETLW  02
03C9:  RETLW  01
03CA:  RETLW  00
03CB:  RETLW  02
03CC:  RETLW  01
03CD:  RETLW  00
03CE:  RETLW  03
03CF:  RETLW  02
03D0:  RETLW  01
03D1:  RETLW  00
03D2:  RETLW  03
03D3:  RETLW  02
03D4:  RETLW  01
03D5:  RETLW  00
03D6:  RETLW  02
03D7:  RETLW  01
03D8:  RETLW  00
03D9:  RETLW  01
03DA:  RETLW  00
03DB:  RETLW  01
03DC:  RETLW  00
03DD:  RETLW  03
03DE:  RETLW  02
03DF:  RETLW  01
03E0:  RETLW  00
03E1:  RETLW  01
03E2:  RETLW  00
03E3:  RETLW  02
03E4:  RETLW  01
03E5:  RETLW  00
03E6:  RETLW  01
03E7:  RETLW  00
03E8:  RETLW  07
03E9:  RETLW  06
03EA:  RETLW  05
03EB:  RETLW  04
03EC:  RETLW  03
03ED:  RETLW  02
03EE:  RETLW  01
03EF:  RETLW  00
03F0:  RETLW  05
03F1:  RETLW  04
03F2:  RETLW  03
03F3:  RETLW  02
03F4:  RETLW  01
03F5:  RETLW  00
03F6:  RETLW  02
03F7:  RETLW  01
03F8:  RETLW  00
03F9:  RETLW  02
03FA:  RETLW  01
03FB:  RETLW  00
03FC:  RETLW  02
03FD:  RETLW  01
03FE:  RETLW  00
03FF:  RETLW  02
0400:  RETLW  01
0401:  RETLW  00
0402:  RETLW  02
0403:  RETLW  01
0404:  RETLW  00
0405:  RETLW  02
0406:  RETLW  01
0407:  RETLW  00
0408:  RETLW  02
0409:  RETLW  01
040A:  RETLW  00
040B:  RETLW  01
040C:  RETLW  00
040D:  RETLW  05
040E:  RETLW  04
040F:  RETLW  03
0410:  RETLW  02
0411:  RETLW  01
0412:  RETLW  00
0413:  RETLW  02
0414:  RETLW  01
0415:  RETLW  00
0416:  RETLW  02
0417:  RETLW  01
0418:  RETLW  00
0419:  RETLW  04
041A:  RETLW  03
041B:  RETLW  02
041C:  RETLW  01
041D:  RETLW  00
041E:  RETLW  01
041F:  RETLW  00
0420:  RETLW  01
0421:  RETLW  00
0422:  RETLW  01
0423:  RETLW  00
0424:  RETLW  0A
0425:  RETLW  0A
0426:  RETLW  0B
0427:  RETLW  0B
0428:  RETLW  0B
0429:  RETLW  0C
042A:  RETLW  0C
042B:  BCF    0A.0
042C:  BCF    0A.1
042D:  BSF    0A.2
042E:  ADDWF  02,F
042F:  RETLW  06
0430:  RETLW  05
0431:  RETLW  04
0432:  RETLW  03
0433:  RETLW  02
0434:  RETLW  01
0435:  RETLW  00
0436:  RETLW  01
0437:  RETLW  00
0438:  RETLW  07
0439:  RETLW  06
043A:  RETLW  05
043B:  RETLW  04
043C:  RETLW  03
043D:  RETLW  02
043E:  RETLW  01
043F:  RETLW  00
0440:  RETLW  03
0441:  RETLW  02
0442:  RETLW  01
0443:  RETLW  00
0444:  RETLW  02
0445:  RETLW  01
0446:  RETLW  00
0447:  RETLW  03
0448:  RETLW  02
0449:  RETLW  01
044A:  RETLW  00
044B:  RETLW  07
044C:  RETLW  06
044D:  RETLW  05
044E:  RETLW  04
044F:  RETLW  03
0450:  RETLW  02
0451:  RETLW  01
0452:  RETLW  00
0453:  RETLW  07
0454:  RETLW  06
0455:  RETLW  05
0456:  RETLW  04
0457:  RETLW  03
0458:  RETLW  02
0459:  RETLW  01
045A:  RETLW  00
045B:  RETLW  05
045C:  RETLW  04
045D:  RETLW  03
045E:  RETLW  02
045F:  RETLW  01
0460:  RETLW  00
0461:  RETLW  0A
0462:  RETLW  0A
0463:  RETLW  0B
0464:  RETLW  0B
0465:  RETLW  0C
0466:  RETLW  0C
0467:  BCF    0A.0
0468:  BCF    0A.1
0469:  BSF    0A.2
046A:  ADDWF  02,F
046B:  RETLW  05
046C:  RETLW  04
046D:  RETLW  03
046E:  RETLW  02
046F:  RETLW  01
0470:  RETLW  00
0471:  RETLW  01
0472:  RETLW  00
0473:  RETLW  01
0474:  RETLW  00
0475:  RETLW  05
0476:  RETLW  04
0477:  RETLW  03
0478:  RETLW  02
0479:  RETLW  01
047A:  RETLW  00
047B:  RETLW  03
047C:  RETLW  02
047D:  RETLW  01
047E:  RETLW  00
047F:  RETLW  04
0480:  RETLW  03
0481:  RETLW  02
0482:  RETLW  01
0483:  RETLW  00
0484:  RETLW  03
0485:  RETLW  02
0486:  RETLW  01
0487:  RETLW  00
0488:  RETLW  03
0489:  RETLW  02
048A:  RETLW  01
048B:  RETLW  00
048C:  RETLW  01
048D:  RETLW  00
048E:  RETLW  01
048F:  RETLW  00
0490:  RETLW  01
0491:  RETLW  00
0492:  RETLW  03
0493:  RETLW  02
0494:  RETLW  01
0495:  RETLW  00
0496:  RETLW  06
0497:  RETLW  05
0498:  RETLW  04
0499:  RETLW  03
049A:  RETLW  02
049B:  RETLW  01
049C:  RETLW  00
049D:  RETLW  0A
049E:  RETLW  0A
049F:  RETLW  0B
04A0:  RETLW  0B
04A1:  RETLW  0C
04A2:  RETLW  0C
04A3:  BCF    0A.0
04A4:  BCF    0A.1
04A5:  BSF    0A.2
04A6:  ADDWF  02,F
04A7:  RETLW  04
04A8:  RETLW  03
04A9:  RETLW  02
04AA:  RETLW  01
04AB:  RETLW  00
04AC:  RETLW  05
04AD:  RETLW  04
04AE:  RETLW  03
04AF:  RETLW  02
04B0:  RETLW  01
04B1:  RETLW  00
04B2:  RETLW  01
04B3:  RETLW  00
04B4:  RETLW  01
04B5:  RETLW  00
04B6:  RETLW  03
04B7:  RETLW  02
04B8:  RETLW  01
04B9:  RETLW  00
04BA:  RETLW  06
04BB:  RETLW  05
04BC:  RETLW  04
04BD:  RETLW  03
04BE:  RETLW  02
04BF:  RETLW  01
04C0:  RETLW  00
04C1:  RETLW  03
04C2:  RETLW  02
04C3:  RETLW  01
04C4:  RETLW  00
04C5:  RETLW  01
04C6:  RETLW  00
04C7:  RETLW  01
04C8:  RETLW  00
04C9:  RETLW  03
04CA:  RETLW  02
04CB:  RETLW  01
04CC:  RETLW  00
04CD:  RETLW  01
04CE:  RETLW  00
04CF:  RETLW  01
04D0:  RETLW  00
04D1:  RETLW  07
04D2:  RETLW  06
04D3:  RETLW  05
04D4:  RETLW  04
04D5:  RETLW  03
04D6:  RETLW  02
04D7:  RETLW  01
04D8:  RETLW  00
04D9:  RETLW  0A
04DA:  RETLW  0A
04DB:  RETLW  0B
04DC:  RETLW  0B
04DD:  RETLW  0C
04DE:  RETLW  0C
04DF:  BCF    0A.0
04E0:  BCF    0A.1
04E1:  BSF    0A.2
04E2:  ADDLW  E6
04E3:  BTFSC  03.0
04E4:  INCF   0A,F
04E5:  MOVWF  02
04E6:  RETLW  03
04E7:  RETLW  02
04E8:  RETLW  01
04E9:  RETLW  00
04EA:  RETLW  07
04EB:  RETLW  06
04EC:  RETLW  05
04ED:  RETLW  04
04EE:  RETLW  03
04EF:  RETLW  02
04F0:  RETLW  01
04F1:  RETLW  00
04F2:  RETLW  01
04F3:  RETLW  00
04F4:  RETLW  03
04F5:  RETLW  02
04F6:  RETLW  01
04F7:  RETLW  00
04F8:  RETLW  08
04F9:  RETLW  07
04FA:  RETLW  06
04FB:  RETLW  05
04FC:  RETLW  04
04FD:  RETLW  03
04FE:  RETLW  02
04FF:  RETLW  01
0500:  RETLW  00
0501:  RETLW  03
0502:  RETLW  02
0503:  RETLW  01
0504:  RETLW  00
0505:  RETLW  09
0506:  RETLW  08
0507:  RETLW  07
0508:  RETLW  06
0509:  RETLW  05
050A:  RETLW  04
050B:  RETLW  03
050C:  RETLW  02
050D:  RETLW  01
050E:  RETLW  00
050F:  RETLW  08
0510:  RETLW  07
0511:  RETLW  06
0512:  RETLW  05
0513:  RETLW  04
0514:  RETLW  03
0515:  RETLW  02
0516:  RETLW  01
0517:  RETLW  00
0518:  RETLW  0A
0519:  RETLW  0A
051A:  RETLW  0B
051B:  RETLW  0B
051C:  RETLW  0C
051D:  RETLW  0C
051E:  BSF    0A.0
051F:  BCF    0A.1
0520:  BSF    0A.2
0521:  ADDWF  02,F
0522:  RETLW  3F
0523:  RETLW  06
0524:  RETLW  5B
0525:  RETLW  4F
0526:  RETLW  66
0527:  RETLW  6D
0528:  RETLW  7D
0529:  RETLW  07
052A:  RETLW  7F
052B:  RETLW  6F
052C:  RETLW  08
052D:  RETLW  48
052E:  RETLW  49
*
05B9:  CLRF   77
05BA:  CLRF   78
05BB:  MOVF   51,W
05BC:  BCF    03.0
05BD:  BTFSC  52.0
05BE:  ADDWF  77,F
05BF:  RRF    77,F
05C0:  RRF    78,F
05C1:  BTFSC  52.1
05C2:  ADDWF  77,F
05C3:  RRF    77,F
05C4:  RRF    78,F
05C5:  BTFSC  52.2
05C6:  ADDWF  77,F
05C7:  RRF    77,F
05C8:  RRF    78,F
05C9:  BTFSC  52.3
05CA:  ADDWF  77,F
05CB:  RRF    77,F
05CC:  RRF    78,F
05CD:  BTFSC  52.4
05CE:  ADDWF  77,F
05CF:  RRF    77,F
05D0:  RRF    78,F
05D1:  BTFSC  52.5
05D2:  ADDWF  77,F
05D3:  RRF    77,F
05D4:  RRF    78,F
05D5:  BTFSC  52.6
05D6:  ADDWF  77,F
05D7:  RRF    77,F
05D8:  RRF    78,F
05D9:  BTFSC  52.7
05DA:  ADDWF  77,F
05DB:  RRF    77,F
05DC:  RRF    78,F
05DD:  RETURN
05DE:  CLRF   78
05DF:  CLRF   79
05E0:  CLRF   77
05E1:  CLRF   7A
05E2:  MOVF   54,W
05E3:  BTFSS  03.2
05E4:  GOTO   5E8
05E5:  MOVF   53,W
05E6:  BTFSC  03.2
05E7:  GOTO   602
05E8:  MOVLW  10
05E9:  MOVWF  55
05EA:  BCF    03.0
05EB:  RLF    51,F
05EC:  RLF    52,F
05ED:  RLF    77,F
05EE:  RLF    7A,F
05EF:  MOVF   54,W
05F0:  SUBWF  7A,W
05F1:  BTFSS  03.2
05F2:  GOTO   5F5
05F3:  MOVF   53,W
05F4:  SUBWF  77,W
05F5:  BTFSS  03.0
05F6:  GOTO   5FE
05F7:  MOVF   53,W
05F8:  SUBWF  77,F
05F9:  BTFSS  03.0
05FA:  DECF   7A,F
05FB:  MOVF   54,W
05FC:  SUBWF  7A,F
05FD:  BSF    03.0
05FE:  RLF    78,F
05FF:  RLF    79,F
0600:  DECFSZ 55,F
0601:  GOTO   5EA
0602:  RETURN
*
06DA:  MOVLW  10
06DB:  MOVWF  55
06DC:  CLRF   77
06DD:  CLRF   7A
06DE:  RRF    52,F
06DF:  RRF    51,F
06E0:  BTFSS  03.0
06E1:  GOTO   6E8
06E2:  MOVF   53,W
06E3:  ADDWF  77,F
06E4:  BTFSC  03.0
06E5:  INCF   7A,F
06E6:  MOVF   54,W
06E7:  ADDWF  7A,F
06E8:  RRF    7A,F
06E9:  RRF    77,F
06EA:  RRF    79,F
06EB:  RRF    78,F
06EC:  DECFSZ 55,F
06ED:  GOTO   6DE
06EE:  BSF    0A.3
06EF:  BCF    0A.4
06F0:  GOTO   5E7 (RETURN)
*
07A2:  MOVLW  8E
07A3:  MOVWF  77
07A4:  MOVF   4E,W
07A5:  MOVWF  78
07A6:  MOVF   4D,W
07A7:  MOVWF  79
07A8:  CLRF   7A
07A9:  MOVF   78,F
07AA:  BTFSS  03.2
07AB:  GOTO   7B6
07AC:  MOVF   79,W
07AD:  MOVWF  78
07AE:  CLRF   79
07AF:  MOVLW  08
07B0:  SUBWF  77,F
07B1:  MOVF   78,F
07B2:  BTFSS  03.2
07B3:  GOTO   7B6
07B4:  CLRF   77
07B5:  GOTO   7BE
07B6:  BCF    03.0
07B7:  BTFSC  78.7
07B8:  GOTO   7BD
07B9:  RLF    79,F
07BA:  RLF    78,F
07BB:  DECF   77,F
07BC:  GOTO   7B6
07BD:  BCF    78.7
07BE:  RETURN
07BF:  MOVLW  8E
07C0:  MOVWF  77
07C1:  MOVF   4D,W
07C2:  SUBWF  77,F
07C3:  MOVF   4E,W
07C4:  MOVWF  79
07C5:  MOVF   4F,W
07C6:  MOVWF  78
07C7:  BSF    79.7
07C8:  MOVF   77,F
07C9:  BTFSC  03.2
07CA:  GOTO   7D6
07CB:  BCF    03.0
07CC:  MOVF   79,F
07CD:  BTFSS  03.2
07CE:  GOTO   7D2
07CF:  MOVF   78,F
07D0:  BTFSC  03.2
07D1:  GOTO   7D6
07D2:  RRF    79,F
07D3:  RRF    78,F
07D4:  DECFSZ 77,F
07D5:  GOTO   7CB
07D6:  BTFSS  4E.7
07D7:  GOTO   7DD
07D8:  COMF   78,F
07D9:  COMF   79,F
07DA:  INCF   78,F
07DB:  BTFSC  03.2
07DC:  INCF   79,F
07DD:  RETURN
*
0861:  MOVF   4D,W
0862:  BTFSC  03.2
0863:  GOTO   0D1
0864:  MOVWF  55
0865:  MOVF   51,W
0866:  BTFSC  03.2
0867:  GOTO   0D1
0868:  ADDWF  55,F
0869:  BTFSC  03.0
086A:  GOTO   072
086B:  MOVLW  7F
086C:  SUBWF  55,F
086D:  BTFSS  03.0
086E:  GOTO   0D1
086F:  BTFSC  03.2
0870:  GOTO   0D1
0871:  GOTO   076
0872:  MOVLW  81
0873:  ADDWF  55,F
0874:  BTFSC  03.0
0875:  GOTO   0D1
0876:  MOVF   55,W
0877:  MOVWF  77
0878:  CLRF   78
0879:  CLRF   79
087A:  CLRF   7A
087B:  MOVF   4E,W
087C:  MOVWF  59
087D:  BSF    59.7
087E:  MOVF   4F,W
087F:  MOVWF  58
0880:  MOVF   50,W
0881:  MOVWF  57
0882:  MOVLW  18
0883:  MOVWF  55
0884:  CLRF   56
0885:  BTFSS  57.0
0886:  GOTO   09F
0887:  MOVF   54,W
0888:  ADDWF  7A,F
0889:  BTFSS  03.0
088A:  GOTO   091
088B:  INCF   79,F
088C:  BTFSS  03.2
088D:  GOTO   091
088E:  INCF   78,F
088F:  BTFSC  03.2
0890:  BSF    56.7
0891:  MOVF   53,W
0892:  ADDWF  79,F
0893:  BTFSS  03.0
0894:  GOTO   098
0895:  INCF   78,F
0896:  BTFSC  03.2
0897:  BSF    56.7
0898:  MOVF   52,W
0899:  MOVWF  4F
089A:  BSF    4F.7
089B:  MOVF   4F,W
089C:  ADDWF  78,F
089D:  BTFSC  03.0
089E:  BSF    56.7
089F:  RLF    56,F
08A0:  RRF    78,F
08A1:  RRF    79,F
08A2:  RRF    7A,F
08A3:  RRF    59,F
08A4:  RRF    58,F
08A5:  RRF    57,F
08A6:  BCF    03.0
08A7:  DECFSZ 55,F
08A8:  GOTO   084
08A9:  MOVLW  01
08AA:  ADDWF  77,F
08AB:  BTFSC  03.0
08AC:  GOTO   0D1
08AD:  BTFSC  78.7
08AE:  GOTO   0B6
08AF:  RLF    59,F
08B0:  RLF    7A,F
08B1:  RLF    79,F
08B2:  RLF    78,F
08B3:  DECF   77,F
08B4:  BTFSC  03.2
08B5:  GOTO   0D1
08B6:  BTFSS  59.7
08B7:  GOTO   0C7
08B8:  INCF   7A,F
08B9:  BTFSS  03.2
08BA:  GOTO   0C7
08BB:  INCF   79,F
08BC:  BTFSS  03.2
08BD:  GOTO   0C7
08BE:  INCF   78,F
08BF:  BTFSS  03.2
08C0:  GOTO   0C7
08C1:  RRF    78,F
08C2:  RRF    79,F
08C3:  RRF    7A,F
08C4:  INCF   77,F
08C5:  BTFSC  03.2
08C6:  GOTO   0D1
08C7:  MOVF   4E,W
08C8:  MOVWF  56
08C9:  MOVF   52,W
08CA:  XORWF  56,F
08CB:  BTFSS  56.7
08CC:  GOTO   0CF
08CD:  BSF    78.7
08CE:  GOTO   0D5
08CF:  BCF    78.7
08D0:  GOTO   0D5
08D1:  CLRF   77
08D2:  CLRF   78
08D3:  CLRF   79
08D4:  CLRF   7A
08D5:  RETURN
....................  
.................... #list 
....................  
....................  
.................... #FUSES PUT                      //Power Up Timer 
.................... #FUSES BROWNOUT                 //Reset when brownout detected 
.................... #FUSES NOLVP                    //No low voltage prgming, B3(PIC16) or B5(PIC18) used for I/O 
.................... #FUSES NOCPD                    //No EE protection 
.................... #FUSES WRT_1000                 //Program Memory Write Protected from 0 to 0x0FFF 
.................... #FUSES NOPROTECT                //Code not protected from reading 
....................  
.................... #use FIXED_IO(D_outputs=PIN_D7,PIN_D6,PIN_D5,PIN_D4,PIN_D3,PIN_D2,PIN_D1,PIN_D0) 
.................... #use FIXED_IO(A_outputs=PIN_A5) 
....................  
.................... #use delay(crystal=4MHz) 
....................  
.................... #define S1   PIN_B0 
.................... #define S2   PIN_B1 
.................... #define S3   PIN_B2 
.................... #define S4   PIN_B3 
....................  
.................... #define DU   PIN_B4 
.................... #define DD   PIN_B5 
.................... #define DC   PIN_B6 
.................... #define DM   PIN_B7 
....................  
.................... #define BUZZER   PIN_A5 
....................  
....................  
.................... int16 V_INTERVALO_INCREMENTO = 1000;   
.................... int16 contador = 0;   
.................... int16 unidade; 
.................... int16 dezena; 
.................... int16 centena; 
.................... int16 milhar; 
....................  
.................... int16 fase = 0; 
.................... int16 inicio; 
.................... int16 velocidade; 
.................... int1 unidade_ativo = 0, dezena_ativo = 0, centena_ativo = 0, milhar_ativo = 0; 
.................... int1 unidade_ativode = 0, dezena_ativode = 0, centena_ativode = 0,  
.................... milhar_ativode = 0; 
.................... int16 contde = 200; 
.................... int1 comeca=0; 
....................  
.................... int1 para_1=0,para_2=0,para_3=0; 
....................  
.................... int16 unidade_ativodecont = contde, dezena_ativodecont = contde,  
.................... centena_ativodecont = contde, milhar_ativodecont = contde; 
....................  
.................... int16 contador_tela_inicial = 0; 
.................... int16 finalfase = 100; 
.................... int16 vez_contador_tela_inicial = 0; 
....................  
.................... const int8 listadisplay4[] = {0x08,0x00,0x00,0x01,0x02,0x04,0b01001000, 
.................... 0b01000000,0b01000000,0b01000001,0b01000010,0b01000100}; 
.................... const int8 listadisplay3[] = {0x00,0x08,0x01,0x00,0x00,0x00,0x00,0b01001000, 
.................... 0b01000001,0x00,0x00,0x00}; 
.................... const int8 listadisplay2[] = {0x00,0x01,0x08,0x00,0x00,0x00,0x00,0b01000001, 
.................... 0b01001000,0x00,0x00,0x00}; 
.................... const int8 listadisplay1[] = {0x01,0x00,0x00,0x08,0x10,0x20,0b01000001, 
.................... 0b01000000,0b01000000,0b01001000,0b01010000,0b01100000}; 
....................  
.................... const int8 u1 [] = {4,3,2,1,0,3,2,1,0,3,2,1,0,3,2,1,0,5,4,3,2,1,0,5,4,3,2,1,0,8, 
.................... 7,6,5,4,3,2,1,0,8,7,6,5,4,3,2,1,0,5,4,3 ,2 ,1 ,0 ,10,11,11,12,12}; 
.................... const int8 d1 [] = {3,2,1,0,0,2,1,0,6,5,4,3,2,1,0,4,3,2,1,0,2,1,0,2,1,0,3,2,1,0, 
.................... 2,1,0,1,0,1,0,4,3,2,1,0,2,1,0,5,4,3,2,1 ,0 ,10,10,10,11,11,12,12}; 
.................... const int8 c1 [] = {3,2,1,0,0,2,1,0,6,5,4,3,2,1,0,2,1,0,5,4,3,2,1,0,2,1,0,2,1,0, 
.................... 7,6,5,4,3,2,1,0,5,4,3,2,1,0,2,1,0,1,0,10,10,10,10,10,11,11,12,12}; 
.................... const int8 m1 [] = {2,1,0,1,0,1,0,1,0,9,8,7,6,5,4,3,2,1,0,5,4,3,2,1,0,3,2,1,0,3, 
.................... 2,1,0,2,1,0,4,3,2,1,0,8,7,6,5,4,3,2,1,0 ,10,10,10,10,11,11,12,12}; 
....................  
....................  
.................... const int8 u2 [] = {1,0,5,4,3,2,1,0,2,1,0,1,0,5,4,3,2,1,0,2,1,0,1,0,2,1,0,1,0,1, 
.................... 0,1,0,1,0,8,7,6,5,4,3,2,1,0,7,6,5,4,3,2,1,0,10,10,10,10,11,11,11,12,12}; 
.................... const int8 d2 [] = {2,1,0,3,2,1,0,2,1,0,1,0,1,0,3,2,1,0,2,1,0,1,0,2,1,0,1,0,1,0, 
.................... 1,0,3,2,1,0,8,7,6,5,4,2,1,0,6,5,4,3,2,1,0,1,0 ,10,10,10,11,11,11,12,12}; 
.................... const int8 c2 [] = {3,2,1,0,1,0,3,2,1,0,1,0,2,1,0,1,0,3,2,1,0,1,0,3,2,1,0,1,0,7, 
.................... 6,5,4,3,2,1,0,1,0,1,0,2,1,0,5,4,3,2,1,0,3,2,1 ,0 ,10,10,11,11,11,12,12}; 
.................... const int8 m2 [] = {4,3,2,1,0,5,4,3,2,1,0,4,3,2,1,0,5,4,3,2,1,0,3,2,1,0,1,0,1,0, 
.................... 7,6,5,4,3,2,1,0,1,0,1,0,1,0,4,3,2,1,0,5,4,3,2 ,1 ,0 ,10,11,11,11,12,12}; 
....................  
.................... const int8 u3 [] = {2,1,0,2,1,0,2,1,0,2,1,0,3,2,1,0,3,2,1,0,2,1,0,1,0,1,0,1,0,1, 
.................... 0,3,2,1,0,1,0,4,3,2,1,0,6,5,4,3,2,1,0,2,1,0,2,1,0,5,4,3,2,1,0,2,1,0,2,1,0,2,1,0, 
.................... 2,1,0,4,3,2,1,0,2,1,0,5,4,3,2,1,0,2,1,0,1,0,1,0,1 ,0 ,1 ,0 ,1 ,0 ,11,11,11,12,12}; 
.................... const int8 d3 [] = {2,1,0,2,1,0,2,1,0,2,1,0,3,2,1,0,3,2,1,0,4,3,2,1,0,3,2,1,0,3, 
.................... 2,1,0,1,0,1,0,2,1,0,1,0,1,0,4,3,2,1,0,2,1,0,5,4,3,2,1,0,2,1,0,2,1,0,2,1,0,2,1,0, 
.................... 2,1,0,3,2,1,0,1,0,2,1,0,3,2,1,0,2,1,0,2,1,0,1,0,10,10,10,10,10,10,11,11,11,12,12}; 
.................... const int8 c3 [] = {2,1,0,2,1,0,2,1,0,2,1,0,3,2,1,0,6,5,4,3,2,1,0,3,2,1,0,1,0,1, 
.................... 0,1,0,2,1,0,1,0,1,0,3,2,1,0,1,0,2,1,0,5,4,3,2,1,0,2,1,0,2,1,0,2,1,0,2,1,0,2,1,0, 
.................... 2,1,0,2,1,0,3,2,1,0,2,1,0,1,0,2,1,0,3,2,1,0,1,0,1 ,0 ,10,10,10,10,11,11,11,12,12}; 
.................... const int8 m3 [] = {2,1,0,2,1,0,2,1,0,2,1,0,3,2,1,0,3,2,1,0,2,1,0,1,0,1,0,3,2,1, 
.................... 0,1,0,2,1,0,1,0,7,6,5,4,3,2,1,0,5,4,3,2,1,0,2,1,0,2,1,0,2,1,0,2,1,0,2,1,0,2,1,0, 
.................... 2,1,0,1,0,5,4,3,2,1,0,2,1,0,2,1,0,4,3,2,1,0,1,0,1 ,0 ,1 ,0 ,10,10,11,11,11,12,12}; 
....................  
.................... const int8 u4 [] = {6,5,4,3,2,1,0,1,0,7,6,5,4,3,2,1,0,3,2,1,0,2,1,0,3,2,1,0,7,6, 
.................... 5,4,3,2,1,0,7,6,5,4,3,2,1,0,5,4,3,2,1,0,10,10,11,11,12,12}; 
.................... const int8 d4 [] = {5,4,3,2,1,0,1,0,1,0,5,4,3,2,1,0,3,2,1,0,4,3,2,1,0,3,2,1,0,3, 
.................... 2,1,0,1,0,1,0,1,0,3,2,1,0,6,5,4,3,2,1,0,10,10,11,11,12,12}; 
.................... const int8 c4 [] = {4,3,2,1,0,5,4,3,2,1,0,1,0,1,0,3,2,1,0,6,5,4,3,2,1,0,3,2,1,0, 
.................... 1,0,1,0,3,2,1,0,1,0,1,0,7,6,5,4,3,2,1,0,10,10,11,11,12,12}; 
.................... const int8 m4 [] = {3,2,1,0,7,6,5,4,3,2,1,0,1,0,3,2,1,0,8,7,6,5,4,3,2,1,0,3,2,1, 
.................... 0,9,8,7,6,5,4,3,2,1,0,8,7,6,5,4,3,2,1,0,10,10,11,11,12,12}; 
....................  
.................... const int8 display_numbers[] = {0x3F, 0x06, 0x5B, 0x4F, 0x66, 0x6D, 0x7D, 0x07, 0x7F, 0x6F, 0b00001000,0b01001000,0b01001001}; 
....................  
.................... int1 pasou_fase_1=0; 
.................... int1 pasou_fase_2=0; 
.................... int1 pasou_fase_3=0; 
.................... int1 pasou_fase_4=0; 
....................  
.................... int16 contador_ms = 0;  // Contador de milissegundos para controle de intervalo 
.................... void verificaerro0 (); 
.................... void verificaerro9 (); 
.................... void jogo (); 
.................... void tela_iniciu(); 
.................... void escolha_de_fase (); 
.................... void fase1 (); 
.................... void fase4 (); 
.................... void fase3 (); 
.................... void fase2 (); 
.................... void falha (); 
.................... void delay(); 
.................... #INT_TIMER0 
.................... void TIMER0_isr(void)  
.................... { 
....................    set_timer0(get_timer0() + 131);  // Ajuste do temporizador para 1ms 
*
052F:  MOVF   01,W
0530:  ADDLW  83
0531:  MOVWF  5A
0532:  MOVF   5A,W
0533:  MOVWF  01
....................     
....................    contador_ms++;  // Incrementa o contador de milissegundos 
0534:  INCF   4B,F
0535:  BTFSC  03.2
0536:  INCF   4C,F
....................     
....................    if (contador_ms >= V_INTERVALO_INCREMENTO) {  // Se atingir o intervalo de 1 segundo 
0537:  MOVF   28,W
0538:  SUBWF  4C,W
0539:  BTFSS  03.0
053A:  GOTO   5B5
053B:  BTFSS  03.2
053C:  GOTO   541
053D:  MOVF   27,W
053E:  SUBWF  4B,W
053F:  BTFSS  03.0
0540:  GOTO   5B5
....................       contador_ms = 0;  // Reseta o contador de milissegundos 
0541:  CLRF   4C
0542:  CLRF   4B
....................        
....................       para_3=0; 
0543:  BCF    3C.3
....................        
....................       contador_tela_inicial++; 
0544:  INCF   45,F
0545:  BTFSC  03.2
0546:  INCF   46,F
....................        
....................       if (inicio){ 
0547:  MOVF   35,W
0548:  IORWF  36,W
0549:  BTFSC  03.2
054A:  GOTO   54F
....................           inicio--; 
054B:  MOVF   35,W
054C:  BTFSC  03.2
054D:  DECF   36,F
054E:  DECF   35,F
....................       } 
....................  
....................       if (fase && comeca){ 
054F:  MOVF   33,W
0550:  IORWF  34,W
0551:  BTFSC  03.2
0552:  GOTO   5AC
0553:  BTFSS  3C.0
0554:  GOTO   5AC
....................          contador++; 
0555:  INCF   29,F
0556:  BTFSC  03.2
0557:  INCF   2A,F
....................          verificaerro9 (); 
....................          verificaerro0 (); 
....................          unidade_ativo = 0; 
*
05A8:  BCF    39.0
....................          dezena_ativo = 0; 
05A9:  BCF    39.1
....................          centena_ativo = 0; 
05AA:  BCF    39.2
....................          milhar_ativo = 0; 
05AB:  BCF    39.3
....................           
....................       } 
....................        
....................       if (contador_tela_inicial > 5) {  // Se o contador atingir 0, reseta para 9999 
05AC:  MOVF   46,F
05AD:  BTFSS  03.2
05AE:  GOTO   5B3
05AF:  MOVF   45,W
05B0:  SUBLW  05
05B1:  BTFSC  03.0
05B2:  GOTO   5B5
....................          contador_tela_inicial = 0; 
05B3:  CLRF   46
05B4:  CLRF   45
....................       } 
....................    } 
05B5:  BCF    0B.2
05B6:  BCF    0A.3
05B7:  BCF    0A.4
05B8:  GOTO   01B
.................... } 
.................... void delay(int milliseconds) { 
....................     volatile int i; 
....................     // O número de iterações neste loop define a duração do delay 
....................     for(i = 0; i < milliseconds; i++) { 
*
0603:  CLRF   4E
0604:  MOVF   4D,W
0605:  SUBWF  4E,W
0606:  BTFSC  03.0
0607:  GOTO   60A
0608:  INCF   4E,F
0609:  GOTO   604
....................          
....................     } 
060A:  RETURN
.................... } 
.................... void update_display(); 
....................  
.................... void verificabotao(){ 
....................       if (!input(S4) && !unidade_ativode) { 
*
0800:  BSF    03.5
0801:  BSF    06.3
0802:  BCF    03.5
0803:  BTFSC  06.3
0804:  GOTO   009
0805:  BTFSC  39.4
0806:  GOTO   009
....................          unidade_ativo = 1; 
0807:  BSF    39.0
....................          unidade_ativode = 1; 
0808:  BSF    39.4
....................       } 
....................  
....................       if (!input(S3) && !dezena_ativode) { 
0809:  BSF    03.5
080A:  BSF    06.2
080B:  BCF    03.5
080C:  BTFSC  06.2
080D:  GOTO   012
080E:  BTFSC  39.5
080F:  GOTO   012
....................          dezena_ativo = 1; 
0810:  BSF    39.1
....................          dezena_ativode = 1; 
0811:  BSF    39.5
....................       }  
....................       if (!input(S2) && !centena_ativode) { 
0812:  BSF    03.5
0813:  BSF    06.1
0814:  BCF    03.5
0815:  BTFSC  06.1
0816:  GOTO   01B
0817:  BTFSC  39.6
0818:  GOTO   01B
....................          centena_ativo = 1; 
0819:  BSF    39.2
....................          centena_ativode = 1; 
081A:  BSF    39.6
....................       }  
....................       if (!input(S1) && !milhar_ativode) { 
081B:  BSF    03.5
081C:  BSF    06.0
081D:  BCF    03.5
081E:  BTFSC  06.0
081F:  GOTO   024
0820:  BTFSC  39.7
0821:  GOTO   024
....................          milhar_ativo = 1; 
0822:  BSF    39.3
....................          milhar_ativode = 1; 
0823:  BSF    39.7
....................       } 
....................        
....................       if (unidade_ativode){ 
0824:  BTFSS  39.4
0825:  GOTO   033
....................          unidade_ativodecont--; 
0826:  MOVF   3D,W
0827:  BTFSC  03.2
0828:  DECF   3E,F
0829:  DECF   3D,F
....................          if (!unidade_ativodecont){ 
082A:  MOVF   3D,W
082B:  IORWF  3E,W
082C:  BTFSS  03.2
082D:  GOTO   033
....................          unidade_ativodecont= contde; 
082E:  MOVF   3B,W
082F:  MOVWF  3E
0830:  MOVF   3A,W
0831:  MOVWF  3D
....................          unidade_ativode=0; 
0832:  BCF    39.4
....................          } 
....................       } 
....................       if (dezena_ativode){ 
0833:  BTFSS  39.5
0834:  GOTO   042
....................          dezena_ativodecont--; 
0835:  MOVF   3F,W
0836:  BTFSC  03.2
0837:  DECF   40,F
0838:  DECF   3F,F
....................          if (!dezena_ativodecont){ 
0839:  MOVF   3F,W
083A:  IORWF  40,W
083B:  BTFSS  03.2
083C:  GOTO   042
....................          dezena_ativodecont= contde; 
083D:  MOVF   3B,W
083E:  MOVWF  40
083F:  MOVF   3A,W
0840:  MOVWF  3F
....................          dezena_ativode=0; 
0841:  BCF    39.5
....................          } 
....................       } 
....................       if (centena_ativode){ 
0842:  BTFSS  39.6
0843:  GOTO   051
....................          centena_ativodecont--; 
0844:  MOVF   41,W
0845:  BTFSC  03.2
0846:  DECF   42,F
0847:  DECF   41,F
....................          if (!centena_ativodecont){ 
0848:  MOVF   41,W
0849:  IORWF  42,W
084A:  BTFSS  03.2
084B:  GOTO   051
....................          centena_ativodecont= contde; 
084C:  MOVF   3B,W
084D:  MOVWF  42
084E:  MOVF   3A,W
084F:  MOVWF  41
....................          centena_ativode=0; 
0850:  BCF    39.6
....................          } 
....................       } 
....................       if (milhar_ativode){ 
0851:  BTFSS  39.7
0852:  GOTO   060
....................          milhar_ativodecont--; 
0853:  MOVF   43,W
0854:  BTFSC  03.2
0855:  DECF   44,F
0856:  DECF   43,F
....................          if (!milhar_ativodecont){ 
0857:  MOVF   43,W
0858:  IORWF  44,W
0859:  BTFSS  03.2
085A:  GOTO   060
....................          milhar_ativodecont= contde; 
085B:  MOVF   3B,W
085C:  MOVWF  44
085D:  MOVF   3A,W
085E:  MOVWF  43
....................          milhar_ativode=0; 
085F:  BCF    39.7
....................          } 
....................       } 
0860:  RETURN
....................  
.................... } 
....................  
.................... void verificaerro9 (){ 
....................  // Se a unidade está ativa e seu valor é diferente de zero, reseta o contador 
....................          if (unidade_ativo && unidade != 0) { 
*
0558:  BTFSS  39.0
0559:  GOTO   562
055A:  MOVF   2B,F
055B:  BTFSS  03.2
055C:  GOTO   560
055D:  MOVF   2C,F
055E:  BTFSC  03.2
055F:  GOTO   562
....................          fase = 0;      
0560:  CLRF   34
0561:  CLRF   33
....................          } 
....................  
....................          // Se a dezena está ativa e seu valor é diferente de zero, reseta o contador 
....................          if (dezena_ativo && dezena != 0) { 
0562:  BTFSS  39.1
0563:  GOTO   56C
0564:  MOVF   2D,F
0565:  BTFSS  03.2
0566:  GOTO   56A
0567:  MOVF   2E,F
0568:  BTFSC  03.2
0569:  GOTO   56C
....................          fase = 0; 
056A:  CLRF   34
056B:  CLRF   33
....................          } 
....................  
....................          // Se a centena está ativa e seu valor é diferente de zero, reseta o contador 
....................          if (centena_ativo && centena != 0) { 
056C:  BTFSS  39.2
056D:  GOTO   576
056E:  MOVF   2F,F
056F:  BTFSS  03.2
0570:  GOTO   574
0571:  MOVF   30,F
0572:  BTFSC  03.2
0573:  GOTO   576
....................          fase = 0; 
0574:  CLRF   34
0575:  CLRF   33
....................          } 
....................  
....................          // Se o milhar está ativo e seu valor é diferente de zero, reseta o contador 
....................          if (milhar_ativo && milhar != 0) { 
0576:  BTFSS  39.3
0577:  GOTO   580
0578:  MOVF   31,F
0579:  BTFSS  03.2
057A:  GOTO   57E
057B:  MOVF   32,F
057C:  BTFSC  03.2
057D:  GOTO   580
....................          fase = 0; 
057E:  CLRF   34
057F:  CLRF   33
....................          } 
....................        
.................... } 
....................  
.................... void verificaerro0 (){ 
....................  // Se a unidade está ativa e seu valor é diferente de zero, reseta o contador 
....................          if (!unidade_ativo && unidade == 0) { 
0580:  BTFSC  39.0
0581:  GOTO   58A
0582:  MOVF   2B,F
0583:  BTFSS  03.2
0584:  GOTO   58A
0585:  MOVF   2C,F
0586:  BTFSS  03.2
0587:  GOTO   58A
....................          fase = 0; 
0588:  CLRF   34
0589:  CLRF   33
....................          } 
....................  
....................          // Se a dezena está ativa e seu valor é diferente de zero, reseta o contador 
....................          if (!dezena_ativo && dezena == 0) { 
058A:  BTFSC  39.1
058B:  GOTO   594
058C:  MOVF   2D,F
058D:  BTFSS  03.2
058E:  GOTO   594
058F:  MOVF   2E,F
0590:  BTFSS  03.2
0591:  GOTO   594
....................          fase = 0; 
0592:  CLRF   34
0593:  CLRF   33
....................          } 
....................  
....................          // Se a centena está ativa e seu valor é diferente de zero, reseta o contador 
....................          if (!centena_ativo && centena == 0) { 
0594:  BTFSC  39.2
0595:  GOTO   59E
0596:  MOVF   2F,F
0597:  BTFSS  03.2
0598:  GOTO   59E
0599:  MOVF   30,F
059A:  BTFSS  03.2
059B:  GOTO   59E
....................          fase = 0; 
059C:  CLRF   34
059D:  CLRF   33
....................          } 
....................  
....................          // Se o milhar está ativo e seu valor é diferente de zero, reseta o contador 
....................          if (!milhar_ativo && milhar == 0) { 
059E:  BTFSC  39.3
059F:  GOTO   5A8
05A0:  MOVF   31,F
05A1:  BTFSS  03.2
05A2:  GOTO   5A8
05A3:  MOVF   32,F
05A4:  BTFSS  03.2
05A5:  GOTO   5A8
....................          fase = 0; 
05A6:  CLRF   34
05A7:  CLRF   33
....................          } 
....................        
....................  
.................... } 
....................  
.................... void main() 
*
0D40:  MOVF   03,W
0D41:  ANDLW  1F
0D42:  MOVWF  03
0D43:  MOVLW  03
0D44:  MOVWF  28
0D45:  MOVLW  E8
0D46:  MOVWF  27
0D47:  CLRF   2A
0D48:  CLRF   29
0D49:  CLRF   34
0D4A:  CLRF   33
0D4B:  BCF    39.0
0D4C:  BCF    39.1
0D4D:  BCF    39.2
0D4E:  BCF    39.3
0D4F:  BCF    39.4
0D50:  BCF    39.5
0D51:  BCF    39.6
0D52:  BCF    39.7
0D53:  CLRF   3B
0D54:  MOVLW  C8
0D55:  MOVWF  3A
0D56:  BCF    3C.0
0D57:  BCF    3C.1
0D58:  BCF    3C.2
0D59:  BCF    3C.3
0D5A:  MOVF   3B,W
0D5B:  MOVWF  3E
0D5C:  MOVF   3A,W
0D5D:  MOVWF  3D
0D5E:  MOVF   3B,W
0D5F:  MOVWF  40
0D60:  MOVF   3A,W
0D61:  MOVWF  3F
0D62:  MOVF   3B,W
0D63:  MOVWF  42
0D64:  MOVF   3A,W
0D65:  MOVWF  41
0D66:  MOVF   3B,W
0D67:  MOVWF  44
0D68:  MOVF   3A,W
0D69:  MOVWF  43
0D6A:  CLRF   46
0D6B:  CLRF   45
0D6C:  CLRF   48
0D6D:  MOVLW  64
0D6E:  MOVWF  47
0D6F:  CLRF   4A
0D70:  CLRF   49
0D71:  BCF    3C.4
0D72:  BCF    3C.5
0D73:  BCF    3C.6
0D74:  BCF    3C.7
0D75:  CLRF   4C
0D76:  CLRF   4B
0D77:  BSF    03.5
0D78:  BSF    1F.0
0D79:  BSF    1F.1
0D7A:  BSF    1F.2
0D7B:  BCF    1F.3
0D7C:  MOVLW  07
0D7D:  MOVWF  1C
0D7E:  BCF    03.7
.................... { 
....................    setup_timer_0(RTCC_INTERNAL | RTCC_DIV_8 | RTCC_8_BIT); // Configuração do timer para interrupção a cada 1ms 
0D7F:  MOVF   01,W
0D80:  ANDLW  C0
0D81:  IORLW  02
0D82:  MOVWF  01
....................    enable_interrupts(INT_TIMER0); 
0D83:  BCF    03.5
0D84:  BSF    0B.5
....................    enable_interrupts(GLOBAL);  // Habilita interrupções globais 
0D85:  MOVLW  C0
0D86:  IORWF  0B,F
....................     
....................    output_d(0);  // Limpa os displays 
0D87:  BSF    03.5
0D88:  CLRF   08
0D89:  BCF    03.5
0D8A:  CLRF   08
....................  
....................    fase = 0; 
0D8B:  CLRF   34
0D8C:  CLRF   33
....................    while (TRUE) 
....................    { 
....................        
....................       if (fase==0) 
0D8D:  MOVF   33,F
0D8E:  BTFSS  03.2
0D8F:  GOTO   700
0D90:  MOVF   34,F
0D91:  BTFSS  03.2
0D92:  GOTO   700
....................       { 
....................       V_INTERVALO_INCREMENTO=V_INTERVALO_INCREMENTO/( 3 * (pasou_fase_1+pasou_fase_2+pasou_fase_3+pasou_fase_4)+5) ; 
0D93:  MOVLW  00
0D94:  BTFSC  3C.4
0D95:  MOVLW  01
0D96:  MOVWF  4E
0D97:  MOVLW  00
0D98:  BTFSC  3C.5
0D99:  MOVLW  01
0D9A:  ADDWF  4E,W
0D9B:  MOVWF  4F
0D9C:  MOVLW  00
0D9D:  BTFSC  3C.6
0D9E:  MOVLW  01
0D9F:  ADDWF  4F,W
0DA0:  MOVWF  50
0DA1:  MOVLW  00
0DA2:  BTFSC  3C.7
0DA3:  MOVLW  01
0DA4:  ADDWF  50,W
0DA5:  MOVWF  4D
0DA6:  MOVLW  03
0DA7:  MOVWF  51
0DA8:  MOVF   4D,W
0DA9:  MOVWF  52
0DAA:  BCF    0A.3
0DAB:  CALL   5B9
0DAC:  BSF    0A.3
0DAD:  MOVLW  05
0DAE:  ADDWF  78,W
0DAF:  MOVWF  4D
0DB0:  MOVF   28,W
0DB1:  MOVWF  52
0DB2:  MOVF   27,W
0DB3:  MOVWF  51
0DB4:  CLRF   54
0DB5:  MOVF   4D,W
0DB6:  MOVWF  53
0DB7:  BCF    0A.3
0DB8:  CALL   5DE
0DB9:  BSF    0A.3
0DBA:  MOVF   79,W
0DBB:  MOVWF  28
0DBC:  MOVF   78,W
0DBD:  MOVWF  27
....................       tela_iniciu(); 
0DBE:  BCF    0A.3
0DBF:  GOTO   60B
0DC0:  BSF    0A.3
....................       V_INTERVALO_INCREMENTO=V_INTERVALO_INCREMENTO*( 3 * (pasou_fase_1+pasou_fase_2+pasou_fase_3+pasou_fase_4)+5); 
0DC1:  MOVLW  00
0DC2:  BTFSC  3C.4
0DC3:  MOVLW  01
0DC4:  MOVWF  4E
0DC5:  MOVLW  00
0DC6:  BTFSC  3C.5
0DC7:  MOVLW  01
0DC8:  ADDWF  4E,W
0DC9:  MOVWF  4F
0DCA:  MOVLW  00
0DCB:  BTFSC  3C.6
0DCC:  MOVLW  01
0DCD:  ADDWF  4F,W
0DCE:  MOVWF  50
0DCF:  MOVLW  00
0DD0:  BTFSC  3C.7
0DD1:  MOVLW  01
0DD2:  ADDWF  50,W
0DD3:  MOVWF  4D
0DD4:  MOVLW  03
0DD5:  MOVWF  51
0DD6:  MOVF   4D,W
0DD7:  MOVWF  52
0DD8:  BCF    0A.3
0DD9:  CALL   5B9
0DDA:  BSF    0A.3
0DDB:  MOVLW  05
0DDC:  ADDWF  78,W
0DDD:  MOVWF  4D
0DDE:  MOVF   28,W
0DDF:  MOVWF  52
0DE0:  MOVF   27,W
0DE1:  MOVWF  51
0DE2:  CLRF   54
0DE3:  MOVF   4D,W
0DE4:  MOVWF  53
0DE5:  BCF    0A.3
0DE6:  GOTO   6DA
0DE7:  BSF    0A.3
0DE8:  MOVF   79,W
0DE9:  MOVWF  28
0DEA:  MOVF   78,W
0DEB:  MOVWF  27
....................       escolha_de_fase(); 
0DEC:  BCF    0A.3
0DED:  GOTO   746
0DEE:  BSF    0A.3
....................  
....................       if (fase==1) 
0DEF:  DECFSZ 33,W
0DF0:  GOTO   628
0DF1:  MOVF   34,F
0DF2:  BTFSS  03.2
0DF3:  GOTO   628
....................       { 
....................         contador =0; 
0DF4:  CLRF   2A
0DF5:  CLRF   29
....................         comeca=1; 
0DF6:  BSF    3C.0
....................         velocidade = V_INTERVALO_INCREMENTO; 
0DF7:  MOVF   28,W
0DF8:  MOVWF  38
0DF9:  MOVF   27,W
0DFA:  MOVWF  37
....................         para_1=0; 
0DFB:  BCF    3C.1
....................         para_2=0; 
0DFC:  BCF    3C.2
....................         while (fase){ 
0DFD:  MOVF   33,W
0DFE:  IORWF  34,W
0DFF:  BTFSC  03.2
0E00:  GOTO   603
....................         fase1(); 
0E01:  GOTO   0D6
0E02:  GOTO   5FD
....................         } 
....................         comeca=0; 
0E03:  BCF    3C.0
....................          
....................         if (contador < finalfase){ 
0E04:  MOVF   2A,W
0E05:  SUBWF  48,W
0E06:  BTFSS  03.0
0E07:  GOTO   611
0E08:  BTFSS  03.2
0E09:  GOTO   60E
0E0A:  MOVF   47,W
0E0B:  SUBWF  29,W
0E0C:  BTFSC  03.0
0E0D:  GOTO   611
....................         falha (); 
0E0E:  CALL   1DC
....................         contador=0; 
0E0F:  CLRF   2A
0E10:  CLRF   29
....................         } 
....................          
....................         if (contador >= finalfase+4) 
0E11:  MOVLW  04
0E12:  ADDWF  47,W
0E13:  MOVWF  78
0E14:  MOVF   48,W
0E15:  MOVWF  7A
0E16:  BTFSC  03.0
0E17:  INCF   7A,F
0E18:  MOVF   7A,W
0E19:  SUBWF  2A,W
0E1A:  BTFSS  03.0
0E1B:  GOTO   622
0E1C:  BTFSS  03.2
0E1D:  GOTO   621
0E1E:  MOVF   78,W
0E1F:  SUBWF  29,W
0E20:  BTFSC  03.0
....................         pasou_fase_1=1; 
0E21:  BSF    3C.4
....................  
....................         V_INTERVALO_INCREMENTO = velocidade; 
0E22:  MOVF   38,W
0E23:  MOVWF  28
0E24:  MOVF   37,W
0E25:  MOVWF  27
....................         fase=0; 
0E26:  CLRF   34
0E27:  CLRF   33
....................          
....................       } 
....................       if (fase==2) 
0E28:  MOVF   33,W
0E29:  SUBLW  02
0E2A:  BTFSS  03.2
0E2B:  GOTO   663
0E2C:  MOVF   34,F
0E2D:  BTFSS  03.2
0E2E:  GOTO   663
....................       { 
....................         contador =0; 
0E2F:  CLRF   2A
0E30:  CLRF   29
....................         comeca=1; 
0E31:  BSF    3C.0
....................         velocidade = V_INTERVALO_INCREMENTO; 
0E32:  MOVF   28,W
0E33:  MOVWF  38
0E34:  MOVF   27,W
0E35:  MOVWF  37
....................         para_1=0; 
0E36:  BCF    3C.1
....................         para_2=0; 
0E37:  BCF    3C.2
....................         while (fase){ 
0E38:  MOVF   33,W
0E39:  IORWF  34,W
0E3A:  BTFSC  03.2
0E3B:  GOTO   63E
....................         fase2(); 
0E3C:  GOTO   26B
0E3D:  GOTO   638
....................         } 
....................         comeca=0; 
0E3E:  BCF    3C.0
....................          
....................         if (contador < finalfase){ 
0E3F:  MOVF   2A,W
0E40:  SUBWF  48,W
0E41:  BTFSS  03.0
0E42:  GOTO   64C
0E43:  BTFSS  03.2
0E44:  GOTO   649
0E45:  MOVF   47,W
0E46:  SUBWF  29,W
0E47:  BTFSC  03.0
0E48:  GOTO   64C
....................         falha (); 
0E49:  CALL   1DC
....................         contador=0; 
0E4A:  CLRF   2A
0E4B:  CLRF   29
....................         } 
....................         if (contador >= finalfase+4) 
0E4C:  MOVLW  04
0E4D:  ADDWF  47,W
0E4E:  MOVWF  78
0E4F:  MOVF   48,W
0E50:  MOVWF  7A
0E51:  BTFSC  03.0
0E52:  INCF   7A,F
0E53:  MOVF   7A,W
0E54:  SUBWF  2A,W
0E55:  BTFSS  03.0
0E56:  GOTO   65D
0E57:  BTFSS  03.2
0E58:  GOTO   65C
0E59:  MOVF   78,W
0E5A:  SUBWF  29,W
0E5B:  BTFSC  03.0
....................         pasou_fase_2=1; 
0E5C:  BSF    3C.5
....................          
....................         V_INTERVALO_INCREMENTO = velocidade; 
0E5D:  MOVF   38,W
0E5E:  MOVWF  28
0E5F:  MOVF   37,W
0E60:  MOVWF  27
....................         fase=0; 
0E61:  CLRF   34
0E62:  CLRF   33
....................       } 
....................       if (fase==3) 
0E63:  MOVF   33,W
0E64:  SUBLW  03
0E65:  BTFSS  03.2
0E66:  GOTO   69E
0E67:  MOVF   34,F
0E68:  BTFSS  03.2
0E69:  GOTO   69E
....................       { 
....................         contador =0; 
0E6A:  CLRF   2A
0E6B:  CLRF   29
....................         comeca=1; 
0E6C:  BSF    3C.0
....................         velocidade = V_INTERVALO_INCREMENTO; 
0E6D:  MOVF   28,W
0E6E:  MOVWF  38
0E6F:  MOVF   27,W
0E70:  MOVWF  37
....................         para_1=0; 
0E71:  BCF    3C.1
....................         para_2=0; 
0E72:  BCF    3C.2
....................         while (fase){ 
0E73:  MOVF   33,W
0E74:  IORWF  34,W
0E75:  BTFSC  03.2
0E76:  GOTO   679
....................         fase3(); 
0E77:  GOTO   3DE
0E78:  GOTO   673
....................         } 
....................         comeca=0; 
0E79:  BCF    3C.0
....................          
....................         if (contador < finalfase){ 
0E7A:  MOVF   2A,W
0E7B:  SUBWF  48,W
0E7C:  BTFSS  03.0
0E7D:  GOTO   687
0E7E:  BTFSS  03.2
0E7F:  GOTO   684
0E80:  MOVF   47,W
0E81:  SUBWF  29,W
0E82:  BTFSC  03.0
0E83:  GOTO   687
....................         falha (); 
0E84:  CALL   1DC
....................         contador=0; 
0E85:  CLRF   2A
0E86:  CLRF   29
....................         } 
....................         if (contador >= finalfase+4) 
0E87:  MOVLW  04
0E88:  ADDWF  47,W
0E89:  MOVWF  78
0E8A:  MOVF   48,W
0E8B:  MOVWF  7A
0E8C:  BTFSC  03.0
0E8D:  INCF   7A,F
0E8E:  MOVF   7A,W
0E8F:  SUBWF  2A,W
0E90:  BTFSS  03.0
0E91:  GOTO   698
0E92:  BTFSS  03.2
0E93:  GOTO   697
0E94:  MOVF   78,W
0E95:  SUBWF  29,W
0E96:  BTFSC  03.0
....................         pasou_fase_3=1; 
0E97:  BSF    3C.6
....................          
....................         V_INTERVALO_INCREMENTO = velocidade; 
0E98:  MOVF   38,W
0E99:  MOVWF  28
0E9A:  MOVF   37,W
0E9B:  MOVWF  27
....................         fase=0; 
0E9C:  CLRF   34
0E9D:  CLRF   33
....................        
....................       } 
....................       if (fase==4) 
0E9E:  MOVF   33,W
0E9F:  SUBLW  04
0EA0:  BTFSS  03.2
0EA1:  GOTO   700
0EA2:  MOVF   34,F
0EA3:  BTFSS  03.2
0EA4:  GOTO   700
....................       { 
....................         contador =0; 
0EA5:  CLRF   2A
0EA6:  CLRF   29
....................         comeca=1; 
0EA7:  BSF    3C.0
....................         velocidade = V_INTERVALO_INCREMENTO; 
0EA8:  MOVF   28,W
0EA9:  MOVWF  38
0EAA:  MOVF   27,W
0EAB:  MOVWF  37
....................         para_1=0; 
0EAC:  BCF    3C.1
....................         para_2=0; 
0EAD:  BCF    3C.2
....................         V_INTERVALO_INCREMENTO = V_INTERVALO_INCREMENTO*0.60 ; 
0EAE:  MOVF   28,W
0EAF:  MOVWF  4E
0EB0:  MOVF   27,W
0EB1:  MOVWF  4D
0EB2:  BCF    0A.3
0EB3:  CALL   7A2
0EB4:  BSF    0A.3
0EB5:  MOVF   7A,W
0EB6:  MOVWF  50
0EB7:  MOVF   79,W
0EB8:  MOVWF  4F
0EB9:  MOVF   78,W
0EBA:  MOVWF  4E
0EBB:  MOVF   77,W
0EBC:  MOVWF  4D
0EBD:  MOVLW  9A
0EBE:  MOVWF  54
0EBF:  MOVLW  99
0EC0:  MOVWF  53
0EC1:  MOVLW  19
0EC2:  MOVWF  52
0EC3:  MOVLW  7E
0EC4:  MOVWF  51
0EC5:  CALL   061
0EC6:  MOVF   7A,W
0EC7:  MOVWF  50
0EC8:  MOVF   79,W
0EC9:  MOVWF  4F
0ECA:  MOVF   78,W
0ECB:  MOVWF  4E
0ECC:  MOVF   77,W
0ECD:  MOVWF  4D
0ECE:  BCF    0A.3
0ECF:  CALL   7BF
0ED0:  BSF    0A.3
0ED1:  MOVF   79,W
0ED2:  MOVWF  28
0ED3:  MOVF   78,W
0ED4:  MOVWF  27
....................         while (fase){ 
0ED5:  MOVF   33,W
0ED6:  IORWF  34,W
0ED7:  BTFSC  03.2
0ED8:  GOTO   6DB
....................         fase4(); 
0ED9:  GOTO   49C
0EDA:  GOTO   6D5
....................         } 
....................         comeca=0; 
0EDB:  BCF    3C.0
....................          
....................         if (contador < finalfase){ 
0EDC:  MOVF   2A,W
0EDD:  SUBWF  48,W
0EDE:  BTFSS  03.0
0EDF:  GOTO   6E9
0EE0:  BTFSS  03.2
0EE1:  GOTO   6E6
0EE2:  MOVF   47,W
0EE3:  SUBWF  29,W
0EE4:  BTFSC  03.0
0EE5:  GOTO   6E9
....................         falha (); 
0EE6:  CALL   1DC
....................         contador=0; 
0EE7:  CLRF   2A
0EE8:  CLRF   29
....................         } 
....................         if (contador >= finalfase+4) 
0EE9:  MOVLW  04
0EEA:  ADDWF  47,W
0EEB:  MOVWF  78
0EEC:  MOVF   48,W
0EED:  MOVWF  7A
0EEE:  BTFSC  03.0
0EEF:  INCF   7A,F
0EF0:  MOVF   7A,W
0EF1:  SUBWF  2A,W
0EF2:  BTFSS  03.0
0EF3:  GOTO   6FA
0EF4:  BTFSS  03.2
0EF5:  GOTO   6F9
0EF6:  MOVF   78,W
0EF7:  SUBWF  29,W
0EF8:  BTFSC  03.0
....................         pasou_fase_4=1; 
0EF9:  BSF    3C.7
....................          
....................         V_INTERVALO_INCREMENTO = velocidade; 
0EFA:  MOVF   38,W
0EFB:  MOVWF  28
0EFC:  MOVF   37,W
0EFD:  MOVWF  27
....................         fase=0; 
0EFE:  CLRF   34
0EFF:  CLRF   33
....................       } 
....................       } 
....................       contador=0; 
0F00:  CLRF   2A
0F01:  CLRF   29
0F02:  GOTO   58D
....................       //jogo(); 
....................       
....................        
....................    } 
.................... } 
....................  
0F03:  SLEEP
....................  
.................... void fase1 (){ 
....................        
....................       if (contador <47){ 
*
08D6:  MOVF   2A,F
08D7:  BTFSS  03.2
08D8:  GOTO   10E
08D9:  MOVF   29,W
08DA:  SUBLW  2E
08DB:  BTFSS  03.0
08DC:  GOTO   10E
....................       unidade = u1 [contador] ;    // Unidades 
08DD:  MOVF   2A,W
08DE:  MOVWF  7A
08DF:  MOVF   29,W
08E0:  BCF    0A.3
08E1:  CALL   06F
08E2:  BSF    0A.3
08E3:  MOVWF  78
08E4:  CLRF   7A
08E5:  MOVF   78,W
08E6:  MOVWF  2B
08E7:  MOVF   7A,W
08E8:  MOVWF  2C
....................       dezena = d1 [contador];     // Dezenas 
08E9:  MOVF   2A,W
08EA:  MOVWF  7A
08EB:  MOVF   29,W
08EC:  BCF    0A.3
08ED:  CALL   0AD
08EE:  BSF    0A.3
08EF:  MOVWF  78
08F0:  CLRF   7A
08F1:  MOVF   78,W
08F2:  MOVWF  2D
08F3:  MOVF   7A,W
08F4:  MOVWF  2E
....................       centena = c1 [contador];   // Centenas 
08F5:  MOVF   2A,W
08F6:  MOVWF  7A
08F7:  MOVF   29,W
08F8:  BCF    0A.3
08F9:  CALL   0EB
08FA:  BSF    0A.3
08FB:  MOVWF  78
08FC:  CLRF   7A
08FD:  MOVF   78,W
08FE:  MOVWF  2F
08FF:  MOVF   7A,W
0900:  MOVWF  30
....................       milhar = m1 [contador];  
0901:  MOVF   2A,W
0902:  MOVWF  7A
0903:  MOVF   29,W
0904:  BCF    0A.3
0905:  CALL   12C
0906:  BSF    0A.3
0907:  MOVWF  78
0908:  CLRF   7A
0909:  MOVF   78,W
090A:  MOVWF  31
090B:  MOVF   7A,W
090C:  MOVWF  32
....................       }else{ 
090D:  GOTO   162
....................       unidade = u1 [contador-47] ;    // Unidades 
090E:  MOVLW  2F
090F:  SUBWF  29,W
0910:  MOVWF  4D
0911:  MOVF   2A,W
0912:  MOVWF  4E
0913:  MOVLW  00
0914:  BTFSS  03.0
0915:  MOVLW  01
0916:  SUBWF  4E,F
0917:  MOVF   4E,W
0918:  MOVWF  7A
0919:  MOVF   4D,W
091A:  BCF    0A.3
091B:  CALL   06F
091C:  BSF    0A.3
091D:  MOVWF  78
091E:  CLRF   7A
091F:  MOVF   78,W
0920:  MOVWF  2B
0921:  MOVF   7A,W
0922:  MOVWF  2C
....................       dezena = d1 [contador-47];     // Dezenas 
0923:  MOVLW  2F
0924:  SUBWF  29,W
0925:  MOVWF  4D
0926:  MOVF   2A,W
0927:  MOVWF  4E
0928:  MOVLW  00
0929:  BTFSS  03.0
092A:  MOVLW  01
092B:  SUBWF  4E,F
092C:  MOVF   4E,W
092D:  MOVWF  7A
092E:  MOVF   4D,W
092F:  BCF    0A.3
0930:  CALL   0AD
0931:  BSF    0A.3
0932:  MOVWF  78
0933:  CLRF   7A
0934:  MOVF   78,W
0935:  MOVWF  2D
0936:  MOVF   7A,W
0937:  MOVWF  2E
....................       centena = c1 [contador-47];   // Centenas 
0938:  MOVLW  2F
0939:  SUBWF  29,W
093A:  MOVWF  4D
093B:  MOVF   2A,W
093C:  MOVWF  4E
093D:  MOVLW  00
093E:  BTFSS  03.0
093F:  MOVLW  01
0940:  SUBWF  4E,F
0941:  MOVF   4E,W
0942:  MOVWF  7A
0943:  MOVF   4D,W
0944:  BCF    0A.3
0945:  CALL   0EB
0946:  BSF    0A.3
0947:  MOVWF  78
0948:  CLRF   7A
0949:  MOVF   78,W
094A:  MOVWF  2F
094B:  MOVF   7A,W
094C:  MOVWF  30
....................       milhar = m1 [contador-47];     
094D:  MOVLW  2F
094E:  SUBWF  29,W
094F:  MOVWF  4D
0950:  MOVF   2A,W
0951:  MOVWF  4E
0952:  MOVLW  00
0953:  BTFSS  03.0
0954:  MOVLW  01
0955:  SUBWF  4E,F
0956:  MOVF   4E,W
0957:  MOVWF  7A
0958:  MOVF   4D,W
0959:  BCF    0A.3
095A:  CALL   12C
095B:  BSF    0A.3
095C:  MOVWF  78
095D:  CLRF   7A
095E:  MOVF   78,W
095F:  MOVWF  31
0960:  MOVF   7A,W
0961:  MOVWF  32
....................       }   
....................        
....................       update_display();  // Atualiza o display 
0962:  BCF    0A.3
0963:  CALL   6F1
0964:  BSF    0A.3
....................       verificabotao(); 
0965:  CALL   000
....................        
....................       if (contador==50 && !para_1){ 
0966:  MOVF   29,W
0967:  SUBLW  32
0968:  BTFSS  03.2
0969:  GOTO   197
096A:  MOVF   2A,F
096B:  BTFSS  03.2
096C:  GOTO   197
096D:  BTFSC  3C.1
096E:  GOTO   197
....................       V_INTERVALO_INCREMENTO = V_INTERVALO_INCREMENTO*0.85 ; 
096F:  MOVF   28,W
0970:  MOVWF  4E
0971:  MOVF   27,W
0972:  MOVWF  4D
0973:  BCF    0A.3
0974:  CALL   7A2
0975:  BSF    0A.3
0976:  MOVF   7A,W
0977:  MOVWF  50
0978:  MOVF   79,W
0979:  MOVWF  4F
097A:  MOVF   78,W
097B:  MOVWF  4E
097C:  MOVF   77,W
097D:  MOVWF  4D
097E:  MOVLW  9A
097F:  MOVWF  54
0980:  MOVLW  99
0981:  MOVWF  53
0982:  MOVLW  59
0983:  MOVWF  52
0984:  MOVLW  7E
0985:  MOVWF  51
0986:  CALL   061
0987:  MOVF   7A,W
0988:  MOVWF  50
0989:  MOVF   79,W
098A:  MOVWF  4F
098B:  MOVF   78,W
098C:  MOVWF  4E
098D:  MOVF   77,W
098E:  MOVWF  4D
098F:  BCF    0A.3
0990:  CALL   7BF
0991:  BSF    0A.3
0992:  MOVF   79,W
0993:  MOVWF  28
0994:  MOVF   78,W
0995:  MOVWF  27
....................       para_1=1; 
0996:  BSF    3C.1
....................       } 
....................        
....................        
....................       if (contador==75 &&  !para_2){ 
0997:  MOVF   29,W
0998:  SUBLW  4B
0999:  BTFSS  03.2
099A:  GOTO   1C8
099B:  MOVF   2A,F
099C:  BTFSS  03.2
099D:  GOTO   1C8
099E:  BTFSC  3C.2
099F:  GOTO   1C8
....................       V_INTERVALO_INCREMENTO = V_INTERVALO_INCREMENTO*0.85 ; 
09A0:  MOVF   28,W
09A1:  MOVWF  4E
09A2:  MOVF   27,W
09A3:  MOVWF  4D
09A4:  BCF    0A.3
09A5:  CALL   7A2
09A6:  BSF    0A.3
09A7:  MOVF   7A,W
09A8:  MOVWF  50
09A9:  MOVF   79,W
09AA:  MOVWF  4F
09AB:  MOVF   78,W
09AC:  MOVWF  4E
09AD:  MOVF   77,W
09AE:  MOVWF  4D
09AF:  MOVLW  9A
09B0:  MOVWF  54
09B1:  MOVLW  99
09B2:  MOVWF  53
09B3:  MOVLW  59
09B4:  MOVWF  52
09B5:  MOVLW  7E
09B6:  MOVWF  51
09B7:  CALL   061
09B8:  MOVF   7A,W
09B9:  MOVWF  50
09BA:  MOVF   79,W
09BB:  MOVWF  4F
09BC:  MOVF   78,W
09BD:  MOVWF  4E
09BE:  MOVF   77,W
09BF:  MOVWF  4D
09C0:  BCF    0A.3
09C1:  CALL   7BF
09C2:  BSF    0A.3
09C3:  MOVF   79,W
09C4:  MOVWF  28
09C5:  MOVF   78,W
09C6:  MOVWF  27
....................       para_2=1; 
09C7:  BSF    3C.2
....................       } 
....................        
....................       if (contador == finalfase+5) 
09C8:  MOVLW  05
09C9:  ADDWF  47,W
09CA:  MOVWF  78
09CB:  MOVF   48,W
09CC:  MOVWF  7A
09CD:  BTFSC  03.0
09CE:  INCF   7A,F
09CF:  MOVF   78,W
09D0:  SUBWF  29,W
09D1:  BTFSS  03.2
09D2:  GOTO   1D9
09D3:  MOVF   7A,W
09D4:  SUBWF  2A,W
09D5:  BTFSS  03.2
09D6:  GOTO   1D9
....................       fase=0; 
09D7:  CLRF   34
09D8:  CLRF   33
09D9:  BSF    0A.3
09DA:  BCF    0A.4
09DB:  GOTO   602 (RETURN)
....................        
.................... } 
....................  
.................... void fase2 (){ 
....................       if (contador <33){ 
*
0A6B:  MOVF   2A,F
0A6C:  BTFSS  03.2
0A6D:  GOTO   2A3
0A6E:  MOVF   29,W
0A6F:  SUBLW  20
0A70:  BTFSS  03.0
0A71:  GOTO   2A3
....................       unidade = u2 [contador] ;    // Unidades 
0A72:  MOVF   2A,W
0A73:  MOVWF  7A
0A74:  MOVF   29,W
0A75:  BCF    0A.3
0A76:  CALL   16A
0A77:  BSF    0A.3
0A78:  MOVWF  78
0A79:  CLRF   7A
0A7A:  MOVF   78,W
0A7B:  MOVWF  2B
0A7C:  MOVF   7A,W
0A7D:  MOVWF  2C
....................       dezena = d2 [contador];     // Dezenas 
0A7E:  MOVF   2A,W
0A7F:  MOVWF  7A
0A80:  MOVF   29,W
0A81:  BCF    0A.3
0A82:  CALL   1AB
0A83:  BSF    0A.3
0A84:  MOVWF  78
0A85:  CLRF   7A
0A86:  MOVF   78,W
0A87:  MOVWF  2D
0A88:  MOVF   7A,W
0A89:  MOVWF  2E
....................       centena = c2 [contador];   // Centenas 
0A8A:  MOVF   2A,W
0A8B:  MOVWF  7A
0A8C:  MOVF   29,W
0A8D:  BCF    0A.3
0A8E:  CALL   1EC
0A8F:  BSF    0A.3
0A90:  MOVWF  78
0A91:  CLRF   7A
0A92:  MOVF   78,W
0A93:  MOVWF  2F
0A94:  MOVF   7A,W
0A95:  MOVWF  30
....................       milhar = m2 [contador];  
0A96:  MOVF   2A,W
0A97:  MOVWF  7A
0A98:  MOVF   29,W
0A99:  BCF    0A.3
0A9A:  CALL   230
0A9B:  BSF    0A.3
0A9C:  MOVWF  78
0A9D:  CLRF   7A
0A9E:  MOVF   78,W
0A9F:  MOVWF  31
0AA0:  MOVF   7A,W
0AA1:  MOVWF  32
....................       }else{ 
0AA2:  GOTO   2F7
....................       unidade = u2 [contador-33] ;    // Unidades 
0AA3:  MOVLW  21
0AA4:  SUBWF  29,W
0AA5:  MOVWF  4D
0AA6:  MOVF   2A,W
0AA7:  MOVWF  4E
0AA8:  MOVLW  00
0AA9:  BTFSS  03.0
0AAA:  MOVLW  01
0AAB:  SUBWF  4E,F
0AAC:  MOVF   4E,W
0AAD:  MOVWF  7A
0AAE:  MOVF   4D,W
0AAF:  BCF    0A.3
0AB0:  CALL   16A
0AB1:  BSF    0A.3
0AB2:  MOVWF  78
0AB3:  CLRF   7A
0AB4:  MOVF   78,W
0AB5:  MOVWF  2B
0AB6:  MOVF   7A,W
0AB7:  MOVWF  2C
....................       dezena = d2 [contador-33];     // Dezenas 
0AB8:  MOVLW  21
0AB9:  SUBWF  29,W
0ABA:  MOVWF  4D
0ABB:  MOVF   2A,W
0ABC:  MOVWF  4E
0ABD:  MOVLW  00
0ABE:  BTFSS  03.0
0ABF:  MOVLW  01
0AC0:  SUBWF  4E,F
0AC1:  MOVF   4E,W
0AC2:  MOVWF  7A
0AC3:  MOVF   4D,W
0AC4:  BCF    0A.3
0AC5:  CALL   1AB
0AC6:  BSF    0A.3
0AC7:  MOVWF  78
0AC8:  CLRF   7A
0AC9:  MOVF   78,W
0ACA:  MOVWF  2D
0ACB:  MOVF   7A,W
0ACC:  MOVWF  2E
....................       centena = c2 [contador-33];   // Centenas 
0ACD:  MOVLW  21
0ACE:  SUBWF  29,W
0ACF:  MOVWF  4D
0AD0:  MOVF   2A,W
0AD1:  MOVWF  4E
0AD2:  MOVLW  00
0AD3:  BTFSS  03.0
0AD4:  MOVLW  01
0AD5:  SUBWF  4E,F
0AD6:  MOVF   4E,W
0AD7:  MOVWF  7A
0AD8:  MOVF   4D,W
0AD9:  BCF    0A.3
0ADA:  CALL   1EC
0ADB:  BSF    0A.3
0ADC:  MOVWF  78
0ADD:  CLRF   7A
0ADE:  MOVF   78,W
0ADF:  MOVWF  2F
0AE0:  MOVF   7A,W
0AE1:  MOVWF  30
....................       milhar = m2 [contador-33];     
0AE2:  MOVLW  21
0AE3:  SUBWF  29,W
0AE4:  MOVWF  4D
0AE5:  MOVF   2A,W
0AE6:  MOVWF  4E
0AE7:  MOVLW  00
0AE8:  BTFSS  03.0
0AE9:  MOVLW  01
0AEA:  SUBWF  4E,F
0AEB:  MOVF   4E,W
0AEC:  MOVWF  7A
0AED:  MOVF   4D,W
0AEE:  BCF    0A.3
0AEF:  CALL   230
0AF0:  BSF    0A.3
0AF1:  MOVWF  78
0AF2:  CLRF   7A
0AF3:  MOVF   78,W
0AF4:  MOVWF  31
0AF5:  MOVF   7A,W
0AF6:  MOVWF  32
....................       }   
....................        
....................            
....................        
....................        
....................       update_display();  // Atualiza o display 
0AF7:  BCF    0A.3
0AF8:  CALL   6F1
0AF9:  BSF    0A.3
....................       verificabotao(); 
0AFA:  CALL   000
....................        
....................       if (contador==12 && !para_1){ 
0AFB:  MOVF   29,W
0AFC:  SUBLW  0C
0AFD:  BTFSS  03.2
0AFE:  GOTO   32A
0AFF:  MOVF   2A,F
0B00:  BTFSS  03.2
0B01:  GOTO   32A
0B02:  BTFSC  3C.1
0B03:  GOTO   32A
....................       V_INTERVALO_INCREMENTO = V_INTERVALO_INCREMENTO*0.90 ; 
0B04:  MOVF   28,W
0B05:  MOVWF  4E
0B06:  MOVF   27,W
0B07:  MOVWF  4D
0B08:  BCF    0A.3
0B09:  CALL   7A2
0B0A:  BSF    0A.3
0B0B:  MOVF   7A,W
0B0C:  MOVWF  50
0B0D:  MOVF   79,W
0B0E:  MOVWF  4F
0B0F:  MOVF   78,W
0B10:  MOVWF  4E
0B11:  MOVF   77,W
0B12:  MOVWF  4D
0B13:  MOVLW  66
0B14:  MOVWF  54
0B15:  MOVWF  53
0B16:  MOVWF  52
0B17:  MOVLW  7E
0B18:  MOVWF  51
0B19:  CALL   061
0B1A:  MOVF   7A,W
0B1B:  MOVWF  50
0B1C:  MOVF   79,W
0B1D:  MOVWF  4F
0B1E:  MOVF   78,W
0B1F:  MOVWF  4E
0B20:  MOVF   77,W
0B21:  MOVWF  4D
0B22:  BCF    0A.3
0B23:  CALL   7BF
0B24:  BSF    0A.3
0B25:  MOVF   79,W
0B26:  MOVWF  28
0B27:  MOVF   78,W
0B28:  MOVWF  27
....................       para_1=1; 
0B29:  BSF    3C.1
....................       } 
....................        
....................        
....................       if (contador==24 &&  !para_2){ 
0B2A:  MOVF   29,W
0B2B:  SUBLW  18
0B2C:  BTFSS  03.2
0B2D:  GOTO   339
0B2E:  MOVF   2A,F
0B2F:  BTFSS  03.2
0B30:  GOTO   339
0B31:  BTFSC  3C.2
0B32:  GOTO   339
....................       V_INTERVALO_INCREMENTO = velocidade ; 
0B33:  MOVF   38,W
0B34:  MOVWF  28
0B35:  MOVF   37,W
0B36:  MOVWF  27
....................       para_2=1; 
0B37:  BSF    3C.2
....................       para_1=0; 
0B38:  BCF    3C.1
....................       } 
....................        
....................       if (contador==48 &&  !para_1){ 
0B39:  MOVF   29,W
0B3A:  SUBLW  30
0B3B:  BTFSS  03.2
0B3C:  GOTO   36B
0B3D:  MOVF   2A,F
0B3E:  BTFSS  03.2
0B3F:  GOTO   36B
0B40:  BTFSC  3C.1
0B41:  GOTO   36B
....................       V_INTERVALO_INCREMENTO = V_INTERVALO_INCREMENTO*0.80 ; 
0B42:  MOVF   28,W
0B43:  MOVWF  4E
0B44:  MOVF   27,W
0B45:  MOVWF  4D
0B46:  BCF    0A.3
0B47:  CALL   7A2
0B48:  BSF    0A.3
0B49:  MOVF   7A,W
0B4A:  MOVWF  50
0B4B:  MOVF   79,W
0B4C:  MOVWF  4F
0B4D:  MOVF   78,W
0B4E:  MOVWF  4E
0B4F:  MOVF   77,W
0B50:  MOVWF  4D
0B51:  MOVLW  CD
0B52:  MOVWF  54
0B53:  MOVLW  CC
0B54:  MOVWF  53
0B55:  MOVLW  4C
0B56:  MOVWF  52
0B57:  MOVLW  7E
0B58:  MOVWF  51
0B59:  CALL   061
0B5A:  MOVF   7A,W
0B5B:  MOVWF  50
0B5C:  MOVF   79,W
0B5D:  MOVWF  4F
0B5E:  MOVF   78,W
0B5F:  MOVWF  4E
0B60:  MOVF   77,W
0B61:  MOVWF  4D
0B62:  BCF    0A.3
0B63:  CALL   7BF
0B64:  BSF    0A.3
0B65:  MOVF   79,W
0B66:  MOVWF  28
0B67:  MOVF   78,W
0B68:  MOVWF  27
....................       para_2=0; 
0B69:  BCF    3C.2
....................       para_1=1; 
0B6A:  BSF    3C.1
....................       } 
....................        
....................       if (contador==72 &&  !para_2){ 
0B6B:  MOVF   29,W
0B6C:  SUBLW  48
0B6D:  BTFSS  03.2
0B6E:  GOTO   39B
0B6F:  MOVF   2A,F
0B70:  BTFSS  03.2
0B71:  GOTO   39B
0B72:  BTFSC  3C.2
0B73:  GOTO   39B
....................       V_INTERVALO_INCREMENTO = V_INTERVALO_INCREMENTO*0.90 ; 
0B74:  MOVF   28,W
0B75:  MOVWF  4E
0B76:  MOVF   27,W
0B77:  MOVWF  4D
0B78:  BCF    0A.3
0B79:  CALL   7A2
0B7A:  BSF    0A.3
0B7B:  MOVF   7A,W
0B7C:  MOVWF  50
0B7D:  MOVF   79,W
0B7E:  MOVWF  4F
0B7F:  MOVF   78,W
0B80:  MOVWF  4E
0B81:  MOVF   77,W
0B82:  MOVWF  4D
0B83:  MOVLW  66
0B84:  MOVWF  54
0B85:  MOVWF  53
0B86:  MOVWF  52
0B87:  MOVLW  7E
0B88:  MOVWF  51
0B89:  CALL   061
0B8A:  MOVF   7A,W
0B8B:  MOVWF  50
0B8C:  MOVF   79,W
0B8D:  MOVWF  4F
0B8E:  MOVF   78,W
0B8F:  MOVWF  4E
0B90:  MOVF   77,W
0B91:  MOVWF  4D
0B92:  BCF    0A.3
0B93:  CALL   7BF
0B94:  BSF    0A.3
0B95:  MOVF   79,W
0B96:  MOVWF  28
0B97:  MOVF   78,W
0B98:  MOVWF  27
....................       para_2=1; 
0B99:  BSF    3C.2
....................       para_1=0; 
0B9A:  BCF    3C.1
....................       } 
....................        
....................       if (contador==96 &&  !para_1){ 
0B9B:  MOVF   29,W
0B9C:  SUBLW  60
0B9D:  BTFSS  03.2
0B9E:  GOTO   3CA
0B9F:  MOVF   2A,F
0BA0:  BTFSS  03.2
0BA1:  GOTO   3CA
0BA2:  BTFSC  3C.1
0BA3:  GOTO   3CA
....................       V_INTERVALO_INCREMENTO = V_INTERVALO_INCREMENTO*0.90 ; 
0BA4:  MOVF   28,W
0BA5:  MOVWF  4E
0BA6:  MOVF   27,W
0BA7:  MOVWF  4D
0BA8:  BCF    0A.3
0BA9:  CALL   7A2
0BAA:  BSF    0A.3
0BAB:  MOVF   7A,W
0BAC:  MOVWF  50
0BAD:  MOVF   79,W
0BAE:  MOVWF  4F
0BAF:  MOVF   78,W
0BB0:  MOVWF  4E
0BB1:  MOVF   77,W
0BB2:  MOVWF  4D
0BB3:  MOVLW  66
0BB4:  MOVWF  54
0BB5:  MOVWF  53
0BB6:  MOVWF  52
0BB7:  MOVLW  7E
0BB8:  MOVWF  51
0BB9:  CALL   061
0BBA:  MOVF   7A,W
0BBB:  MOVWF  50
0BBC:  MOVF   79,W
0BBD:  MOVWF  4F
0BBE:  MOVF   78,W
0BBF:  MOVWF  4E
0BC0:  MOVF   77,W
0BC1:  MOVWF  4D
0BC2:  BCF    0A.3
0BC3:  CALL   7BF
0BC4:  BSF    0A.3
0BC5:  MOVF   79,W
0BC6:  MOVWF  28
0BC7:  MOVF   78,W
0BC8:  MOVWF  27
....................       para_1=1; 
0BC9:  BSF    3C.1
....................       } 
....................  
....................       if (contador == finalfase+5) 
0BCA:  MOVLW  05
0BCB:  ADDWF  47,W
0BCC:  MOVWF  78
0BCD:  MOVF   48,W
0BCE:  MOVWF  7A
0BCF:  BTFSC  03.0
0BD0:  INCF   7A,F
0BD1:  MOVF   78,W
0BD2:  SUBWF  29,W
0BD3:  BTFSS  03.2
0BD4:  GOTO   3DB
0BD5:  MOVF   7A,W
0BD6:  SUBWF  2A,W
0BD7:  BTFSS  03.2
0BD8:  GOTO   3DB
....................       fase=0; 
0BD9:  CLRF   34
0BDA:  CLRF   33
0BDB:  BSF    0A.3
0BDC:  BCF    0A.4
0BDD:  GOTO   63D (RETURN)
.................... } 
....................  
.................... void fase3 (){ 
....................      
....................       unidade = u3 [contador] ;    // Unidades 
0BDE:  MOVF   2A,W
0BDF:  MOVWF  7A
0BE0:  MOVF   29,W
0BE1:  BCF    0A.3
0BE2:  CALL   271
0BE3:  BSF    0A.3
0BE4:  MOVWF  78
0BE5:  CLRF   7A
0BE6:  MOVF   78,W
0BE7:  MOVWF  2B
0BE8:  MOVF   7A,W
0BE9:  MOVWF  2C
....................       dezena = d3 [contador];     // Dezenas 
0BEA:  MOVF   2A,W
0BEB:  MOVWF  7A
0BEC:  MOVF   29,W
0BED:  BCF    0A.3
0BEE:  CALL   2DE
0BEF:  BSF    0A.3
0BF0:  MOVWF  78
0BF1:  CLRF   7A
0BF2:  MOVF   78,W
0BF3:  MOVWF  2D
0BF4:  MOVF   7A,W
0BF5:  MOVWF  2E
....................       centena = c3 [contador];   // Centenas 
0BF6:  MOVF   2A,W
0BF7:  MOVWF  7A
0BF8:  MOVF   29,W
0BF9:  BCF    0A.3
0BFA:  CALL   34E
0BFB:  BSF    0A.3
0BFC:  MOVWF  78
0BFD:  CLRF   7A
0BFE:  MOVF   78,W
0BFF:  MOVWF  2F
0C00:  MOVF   7A,W
0C01:  MOVWF  30
....................       milhar = m3 [contador];   // Milhares              
0C02:  MOVF   2A,W
0C03:  MOVWF  7A
0C04:  MOVF   29,W
0C05:  BCF    0A.3
0C06:  CALL   3BB
0C07:  BSF    0A.3
0C08:  MOVWF  78
0C09:  CLRF   7A
0C0A:  MOVF   78,W
0C0B:  MOVWF  31
0C0C:  MOVF   7A,W
0C0D:  MOVWF  32
....................        
....................       update_display();  // Atualiza o display 
0C0E:  BCF    0A.3
0C0F:  CALL   6F1
0C10:  BSF    0A.3
....................       verificabotao(); 
0C11:  CALL   000
....................        
....................       if ((contador+1) % 3 == 0 && !para_1 && contador <30 ){ 
0C12:  MOVLW  01
0C13:  ADDWF  29,W
0C14:  MOVWF  4D
0C15:  MOVF   2A,W
0C16:  MOVWF  4E
0C17:  BTFSC  03.0
0C18:  INCF   4E,F
0C19:  MOVF   4E,W
0C1A:  MOVWF  52
0C1B:  MOVF   4D,W
0C1C:  MOVWF  51
0C1D:  CLRF   54
0C1E:  MOVLW  03
0C1F:  MOVWF  53
0C20:  BCF    0A.3
0C21:  CALL   5DE
0C22:  BSF    0A.3
0C23:  MOVF   77,W
0C24:  MOVWF  4D
0C25:  MOVF   7A,W
0C26:  MOVWF  4E
0C27:  MOVF   4D,F
0C28:  BTFSS  03.2
0C29:  GOTO   45F
0C2A:  MOVF   4E,F
0C2B:  BTFSS  03.2
0C2C:  GOTO   45F
0C2D:  BTFSC  3C.1
0C2E:  GOTO   45F
0C2F:  MOVF   2A,F
0C30:  BTFSS  03.2
0C31:  GOTO   45F
0C32:  MOVF   29,W
0C33:  SUBLW  1D
0C34:  BTFSS  03.0
0C35:  GOTO   45F
....................       V_INTERVALO_INCREMENTO = V_INTERVALO_INCREMENTO*0.94 ; 
0C36:  MOVF   28,W
0C37:  MOVWF  4E
0C38:  MOVF   27,W
0C39:  MOVWF  4D
0C3A:  BCF    0A.3
0C3B:  CALL   7A2
0C3C:  BSF    0A.3
0C3D:  MOVF   7A,W
0C3E:  MOVWF  50
0C3F:  MOVF   79,W
0C40:  MOVWF  4F
0C41:  MOVF   78,W
0C42:  MOVWF  4E
0C43:  MOVF   77,W
0C44:  MOVWF  4D
0C45:  MOVLW  D7
0C46:  MOVWF  54
0C47:  MOVLW  A3
0C48:  MOVWF  53
0C49:  MOVLW  70
0C4A:  MOVWF  52
0C4B:  MOVLW  7E
0C4C:  MOVWF  51
0C4D:  CALL   061
0C4E:  MOVF   7A,W
0C4F:  MOVWF  50
0C50:  MOVF   79,W
0C51:  MOVWF  4F
0C52:  MOVF   78,W
0C53:  MOVWF  4E
0C54:  MOVF   77,W
0C55:  MOVWF  4D
0C56:  BCF    0A.3
0C57:  CALL   7BF
0C58:  BSF    0A.3
0C59:  MOVF   79,W
0C5A:  MOVWF  28
0C5B:  MOVF   78,W
0C5C:  MOVWF  27
....................       para_1=1; 
0C5D:  BSF    3C.1
....................       para_2=0; 
0C5E:  BCF    3C.2
....................       }  
....................        
....................       if ((contador+1)%4 == 0 && !para_2 && (contador+1)%12 ){ 
0C5F:  MOVLW  01
0C60:  ADDWF  29,W
0C61:  MOVWF  4D
0C62:  MOVF   2A,W
0C63:  MOVWF  4E
0C64:  BTFSC  03.0
0C65:  INCF   4E,F
0C66:  MOVLW  03
0C67:  ANDWF  4D,F
0C68:  CLRF   4E
0C69:  MOVF   4D,F
0C6A:  BTFSS  03.2
0C6B:  GOTO   488
0C6C:  MOVF   4E,F
0C6D:  BTFSS  03.2
0C6E:  GOTO   488
0C6F:  BTFSC  3C.2
0C70:  GOTO   488
0C71:  MOVLW  01
0C72:  ADDWF  29,W
0C73:  MOVWF  4D
0C74:  MOVF   2A,W
0C75:  MOVWF  4E
0C76:  BTFSC  03.0
0C77:  INCF   4E,F
0C78:  MOVF   4E,W
0C79:  MOVWF  52
0C7A:  MOVF   4D,W
0C7B:  MOVWF  51
0C7C:  CLRF   54
0C7D:  MOVLW  0C
0C7E:  MOVWF  53
0C7F:  BCF    0A.3
0C80:  CALL   5DE
0C81:  BSF    0A.3
0C82:  MOVF   77,W
0C83:  IORWF  7A,W
0C84:  BTFSC  03.2
0C85:  GOTO   488
....................       para_1=0; 
0C86:  BCF    3C.1
....................       para_2=1; 
0C87:  BSF    3C.2
....................       } 
....................        
....................        
....................        
....................        
....................  
....................       if (contador == finalfase+5) 
0C88:  MOVLW  05
0C89:  ADDWF  47,W
0C8A:  MOVWF  78
0C8B:  MOVF   48,W
0C8C:  MOVWF  7A
0C8D:  BTFSC  03.0
0C8E:  INCF   7A,F
0C8F:  MOVF   78,W
0C90:  SUBWF  29,W
0C91:  BTFSS  03.2
0C92:  GOTO   499
0C93:  MOVF   7A,W
0C94:  SUBWF  2A,W
0C95:  BTFSS  03.2
0C96:  GOTO   499
....................       fase=0; 
0C97:  CLRF   34
0C98:  CLRF   33
0C99:  BSF    0A.3
0C9A:  BCF    0A.4
0C9B:  GOTO   678 (RETURN)
....................  
....................     
.................... } 
....................  
.................... void fase4 (){ 
....................        
....................       if (contador <50){ 
0C9C:  MOVF   2A,F
0C9D:  BTFSS  03.2
0C9E:  GOTO   4D4
0C9F:  MOVF   29,W
0CA0:  SUBLW  31
0CA1:  BTFSS  03.0
0CA2:  GOTO   4D4
....................       unidade = u4 [contador] ;    // Unidades 
0CA3:  MOVF   2A,W
0CA4:  MOVWF  7A
0CA5:  MOVF   29,W
0CA6:  BCF    0A.3
0CA7:  CALL   42B
0CA8:  BSF    0A.3
0CA9:  MOVWF  78
0CAA:  CLRF   7A
0CAB:  MOVF   78,W
0CAC:  MOVWF  2B
0CAD:  MOVF   7A,W
0CAE:  MOVWF  2C
....................       dezena = d4 [contador];     // Dezenas 
0CAF:  MOVF   2A,W
0CB0:  MOVWF  7A
0CB1:  MOVF   29,W
0CB2:  BCF    0A.3
0CB3:  CALL   467
0CB4:  BSF    0A.3
0CB5:  MOVWF  78
0CB6:  CLRF   7A
0CB7:  MOVF   78,W
0CB8:  MOVWF  2D
0CB9:  MOVF   7A,W
0CBA:  MOVWF  2E
....................       centena = c4 [contador];   // Centenas 
0CBB:  MOVF   2A,W
0CBC:  MOVWF  7A
0CBD:  MOVF   29,W
0CBE:  BCF    0A.3
0CBF:  CALL   4A3
0CC0:  BSF    0A.3
0CC1:  MOVWF  78
0CC2:  CLRF   7A
0CC3:  MOVF   78,W
0CC4:  MOVWF  2F
0CC5:  MOVF   7A,W
0CC6:  MOVWF  30
....................       milhar = m4 [contador];  
0CC7:  MOVF   2A,W
0CC8:  MOVWF  7A
0CC9:  MOVF   29,W
0CCA:  BCF    0A.3
0CCB:  CALL   4DF
0CCC:  BSF    0A.3
0CCD:  MOVWF  78
0CCE:  CLRF   7A
0CCF:  MOVF   78,W
0CD0:  MOVWF  31
0CD1:  MOVF   7A,W
0CD2:  MOVWF  32
....................       }else{ 
0CD3:  GOTO   528
....................       unidade = u4 [contador-50] ;    // Unidades 
0CD4:  MOVLW  32
0CD5:  SUBWF  29,W
0CD6:  MOVWF  4D
0CD7:  MOVF   2A,W
0CD8:  MOVWF  4E
0CD9:  MOVLW  00
0CDA:  BTFSS  03.0
0CDB:  MOVLW  01
0CDC:  SUBWF  4E,F
0CDD:  MOVF   4E,W
0CDE:  MOVWF  7A
0CDF:  MOVF   4D,W
0CE0:  BCF    0A.3
0CE1:  CALL   42B
0CE2:  BSF    0A.3
0CE3:  MOVWF  78
0CE4:  CLRF   7A
0CE5:  MOVF   78,W
0CE6:  MOVWF  2B
0CE7:  MOVF   7A,W
0CE8:  MOVWF  2C
....................       dezena = d4 [contador-50];     // Dezenas 
0CE9:  MOVLW  32
0CEA:  SUBWF  29,W
0CEB:  MOVWF  4D
0CEC:  MOVF   2A,W
0CED:  MOVWF  4E
0CEE:  MOVLW  00
0CEF:  BTFSS  03.0
0CF0:  MOVLW  01
0CF1:  SUBWF  4E,F
0CF2:  MOVF   4E,W
0CF3:  MOVWF  7A
0CF4:  MOVF   4D,W
0CF5:  BCF    0A.3
0CF6:  CALL   467
0CF7:  BSF    0A.3
0CF8:  MOVWF  78
0CF9:  CLRF   7A
0CFA:  MOVF   78,W
0CFB:  MOVWF  2D
0CFC:  MOVF   7A,W
0CFD:  MOVWF  2E
....................       centena = c4 [contador-50];   // Centenas 
0CFE:  MOVLW  32
0CFF:  SUBWF  29,W
0D00:  MOVWF  4D
0D01:  MOVF   2A,W
0D02:  MOVWF  4E
0D03:  MOVLW  00
0D04:  BTFSS  03.0
0D05:  MOVLW  01
0D06:  SUBWF  4E,F
0D07:  MOVF   4E,W
0D08:  MOVWF  7A
0D09:  MOVF   4D,W
0D0A:  BCF    0A.3
0D0B:  CALL   4A3
0D0C:  BSF    0A.3
0D0D:  MOVWF  78
0D0E:  CLRF   7A
0D0F:  MOVF   78,W
0D10:  MOVWF  2F
0D11:  MOVF   7A,W
0D12:  MOVWF  30
....................       milhar = m4 [contador-50];     
0D13:  MOVLW  32
0D14:  SUBWF  29,W
0D15:  MOVWF  4D
0D16:  MOVF   2A,W
0D17:  MOVWF  4E
0D18:  MOVLW  00
0D19:  BTFSS  03.0
0D1A:  MOVLW  01
0D1B:  SUBWF  4E,F
0D1C:  MOVF   4E,W
0D1D:  MOVWF  7A
0D1E:  MOVF   4D,W
0D1F:  BCF    0A.3
0D20:  CALL   4DF
0D21:  BSF    0A.3
0D22:  MOVWF  78
0D23:  CLRF   7A
0D24:  MOVF   78,W
0D25:  MOVWF  31
0D26:  MOVF   7A,W
0D27:  MOVWF  32
....................       } 
....................              
....................       update_display();  // Atualiza o display 
0D28:  BCF    0A.3
0D29:  CALL   6F1
0D2A:  BSF    0A.3
....................       verificabotao();   
0D2B:  CALL   000
....................        
....................       if (contador == finalfase+5) 
0D2C:  MOVLW  05
0D2D:  ADDWF  47,W
0D2E:  MOVWF  78
0D2F:  MOVF   48,W
0D30:  MOVWF  7A
0D31:  BTFSC  03.0
0D32:  INCF   7A,F
0D33:  MOVF   78,W
0D34:  SUBWF  29,W
0D35:  BTFSS  03.2
0D36:  GOTO   53D
0D37:  MOVF   7A,W
0D38:  SUBWF  2A,W
0D39:  BTFSS  03.2
0D3A:  GOTO   53D
....................       fase=0; 
0D3B:  CLRF   34
0D3C:  CLRF   33
0D3D:  BSF    0A.3
0D3E:  BCF    0A.4
0D3F:  GOTO   6DA (RETURN)
....................        
.................... } 
....................  
....................  
.................... void escolha_de_fase (){ 
....................        
....................        if (!input(S4)) { 
*
0746:  BSF    03.5
0747:  BSF    06.3
0748:  BCF    03.5
0749:  BTFSC  06.3
074A:  GOTO   74E
....................             fase = 4; 
074B:  CLRF   34
074C:  MOVLW  04
074D:  MOVWF  33
....................        } 
....................  
....................        if (!input(S3)) { 
074E:  BSF    03.5
074F:  BSF    06.2
0750:  BCF    03.5
0751:  BTFSC  06.2
0752:  GOTO   756
....................             fase = 3; 
0753:  CLRF   34
0754:  MOVLW  03
0755:  MOVWF  33
....................        }  
....................        if (!input(S2)) { 
0756:  BSF    03.5
0757:  BSF    06.1
0758:  BCF    03.5
0759:  BTFSC  06.1
075A:  GOTO   75E
....................             fase = 2; 
075B:  CLRF   34
075C:  MOVLW  02
075D:  MOVWF  33
....................        }  
....................        if (!input(S1)) { 
075E:  BSF    03.5
075F:  BSF    06.0
0760:  BCF    03.5
0761:  BTFSC  06.0
0762:  GOTO   766
....................             fase = 1; 
0763:  CLRF   34
0764:  MOVLW  01
0765:  MOVWF  33
....................        
....................       } 
....................       if (fase){ 
0766:  MOVF   33,W
0767:  IORWF  34,W
0768:  BTFSC  03.2
0769:  GOTO   79F
....................           
....................       output_low(DM); 
076A:  BSF    03.5
076B:  BCF    06.7
076C:  BCF    03.5
076D:  BCF    06.7
....................       output_low(DD); 
076E:  BSF    03.5
076F:  BCF    06.5
0770:  BCF    03.5
0771:  BCF    06.5
....................       output_low(DC); 
0772:  BSF    03.5
0773:  BCF    06.6
0774:  BCF    03.5
0775:  BCF    06.6
....................       output_low(DU); 
0776:  BSF    03.5
0777:  BCF    06.4
0778:  BCF    03.5
0779:  BCF    06.4
....................       inicio=3; 
077A:  CLRF   36
077B:  MOVLW  03
077C:  MOVWF  35
....................       V_INTERVALO_INCREMENTO = V_INTERVALO_INCREMENTO*2 ; 
077D:  BCF    03.0
077E:  RLF    27,F
077F:  RLF    28,F
....................       output_high(DU); 
0780:  BSF    03.5
0781:  BCF    06.4
0782:  BCF    03.5
0783:  BSF    06.4
....................        
....................       while (inicio > 0){ 
0784:  MOVF   35,F
0785:  BTFSS  03.2
0786:  GOTO   78A
0787:  MOVF   36,F
0788:  BTFSC  03.2
0789:  GOTO   79C
....................            unidade = inicio; 
078A:  MOVF   36,W
078B:  MOVWF  2C
078C:  MOVF   35,W
078D:  MOVWF  2B
....................            dezena = 12; 
078E:  CLRF   2E
078F:  MOVLW  0C
0790:  MOVWF  2D
....................            centena = 12;           // Unidades 
0791:  CLRF   30
0792:  MOVWF  2F
....................            milhar = inicio ; 
0793:  MOVF   36,W
0794:  MOVWF  32
0795:  MOVF   35,W
0796:  MOVWF  31
....................            update_display(); 
0797:  CALL   6F1
....................            delay(30); 
0798:  MOVLW  1E
0799:  MOVWF  4D
079A:  CALL   603
079B:  GOTO   784
....................            
....................       } 
....................       V_INTERVALO_INCREMENTO = V_INTERVALO_INCREMENTO/2 ; 
079C:  BCF    03.0
079D:  RRF    28,F
079E:  RRF    27,F
....................       } 
079F:  BSF    0A.3
07A0:  BCF    0A.4
07A1:  GOTO   5EE (RETURN)
.................... } 
....................  
.................... void falha (){ 
....................  
....................  
....................       inicio=7; 
*
09DC:  CLRF   36
09DD:  MOVLW  07
09DE:  MOVWF  35
....................  
....................       unidade = 12 ; 
09DF:  CLRF   2C
09E0:  MOVLW  0C
09E1:  MOVWF  2B
....................       if ((contador % 10 )){ 
09E2:  MOVF   2A,W
09E3:  MOVWF  52
09E4:  MOVF   29,W
09E5:  MOVWF  51
09E6:  CLRF   54
09E7:  MOVLW  0A
09E8:  MOVWF  53
09E9:  BCF    0A.3
09EA:  CALL   5DE
09EB:  BSF    0A.3
09EC:  MOVF   77,W
09ED:  IORWF  7A,W
09EE:  BTFSC  03.2
09EF:  GOTO   231
....................       dezena = -(contador % 10 )+10; 
09F0:  MOVF   2A,W
09F1:  MOVWF  52
09F2:  MOVF   29,W
09F3:  MOVWF  51
09F4:  CLRF   54
09F5:  MOVLW  0A
09F6:  MOVWF  53
09F7:  BCF    0A.3
09F8:  CALL   5DE
09F9:  BSF    0A.3
09FA:  MOVF   77,W
09FB:  SUBLW  00
09FC:  MOVWF  4D
09FD:  CLRF   4E
09FE:  MOVF   7A,W
09FF:  BTFSS  03.0
0A00:  INCFSZ 7A,W
0A01:  SUBWF  4E,F
0A02:  MOVLW  0A
0A03:  ADDWF  4D,W
0A04:  MOVWF  2D
0A05:  MOVF   4E,W
0A06:  MOVWF  2E
0A07:  BTFSC  03.0
0A08:  INCF   2E,F
....................       centena = -((contador / 10) % 10)+9; 
0A09:  MOVF   2A,W
0A0A:  MOVWF  52
0A0B:  MOVF   29,W
0A0C:  MOVWF  51
0A0D:  CLRF   54
0A0E:  MOVLW  0A
0A0F:  MOVWF  53
0A10:  BCF    0A.3
0A11:  CALL   5DE
0A12:  BSF    0A.3
0A13:  MOVF   79,W
0A14:  MOVWF  4E
0A15:  MOVF   78,W
0A16:  MOVWF  4D
0A17:  MOVF   79,W
0A18:  MOVWF  52
0A19:  MOVF   78,W
0A1A:  MOVWF  51
0A1B:  CLRF   54
0A1C:  MOVLW  0A
0A1D:  MOVWF  53
0A1E:  BCF    0A.3
0A1F:  CALL   5DE
0A20:  BSF    0A.3
0A21:  MOVF   77,W
0A22:  SUBLW  00
0A23:  MOVWF  4D
0A24:  CLRF   4E
0A25:  MOVF   7A,W
0A26:  BTFSS  03.0
0A27:  INCFSZ 7A,W
0A28:  SUBWF  4E,F
0A29:  MOVLW  09
0A2A:  ADDWF  4D,W
0A2B:  MOVWF  2F
0A2C:  MOVF   4E,W
0A2D:  MOVWF  30
0A2E:  BTFSC  03.0
0A2F:  INCF   30,F
....................       }else{ 
0A30:  GOTO   25A
....................       dezena=0; 
0A31:  CLRF   2E
0A32:  CLRF   2D
....................       centena = -((contador / 10) % 10)+10; 
0A33:  MOVF   2A,W
0A34:  MOVWF  52
0A35:  MOVF   29,W
0A36:  MOVWF  51
0A37:  CLRF   54
0A38:  MOVLW  0A
0A39:  MOVWF  53
0A3A:  BCF    0A.3
0A3B:  CALL   5DE
0A3C:  BSF    0A.3
0A3D:  MOVF   79,W
0A3E:  MOVWF  4E
0A3F:  MOVF   78,W
0A40:  MOVWF  4D
0A41:  MOVF   79,W
0A42:  MOVWF  52
0A43:  MOVF   78,W
0A44:  MOVWF  51
0A45:  CLRF   54
0A46:  MOVLW  0A
0A47:  MOVWF  53
0A48:  BCF    0A.3
0A49:  CALL   5DE
0A4A:  BSF    0A.3
0A4B:  MOVF   77,W
0A4C:  SUBLW  00
0A4D:  MOVWF  4D
0A4E:  CLRF   4E
0A4F:  MOVF   7A,W
0A50:  BTFSS  03.0
0A51:  INCFSZ 7A,W
0A52:  SUBWF  4E,F
0A53:  MOVLW  0A
0A54:  ADDWF  4D,W
0A55:  MOVWF  2F
0A56:  MOVF   4E,W
0A57:  MOVWF  30
0A58:  BTFSC  03.0
0A59:  INCF   30,F
....................       } 
....................                 // Unidades 
....................       milhar =12 ; 
0A5A:  CLRF   32
0A5B:  MOVLW  0C
0A5C:  MOVWF  31
....................        
....................       while (inicio){ 
0A5D:  MOVF   35,W
0A5E:  IORWF  36,W
0A5F:  BTFSC  03.2
0A60:  GOTO   26A
....................          update_display(); 
0A61:  BCF    0A.3
0A62:  CALL   6F1
0A63:  BSF    0A.3
....................           
....................          delay(15); 
0A64:  MOVLW  0F
0A65:  MOVWF  4D
0A66:  BCF    0A.3
0A67:  CALL   603
0A68:  BSF    0A.3
0A69:  GOTO   25D
....................       } 
0A6A:  RETURN
.................... } 
....................  
....................  
....................  
....................  
.................... void tela_iniciu(){ 
....................     
....................    if (contador_tela_inicial== 1 || contador_tela_inicial==2 ) { 
*
060B:  DECFSZ 45,W
060C:  GOTO   610
060D:  MOVF   46,F
060E:  BTFSC  03.2
060F:  GOTO   617
0610:  MOVF   45,W
0611:  SUBLW  02
0612:  BTFSS  03.2
0613:  GOTO   676
0614:  MOVF   46,F
0615:  BTFSS  03.2
0616:  GOTO   676
....................        
....................          output_low(DM); 
0617:  BSF    03.5
0618:  BCF    06.7
0619:  BCF    03.5
061A:  BCF    06.7
....................          output_low(DU); 
061B:  BSF    03.5
061C:  BCF    06.4
061D:  BCF    03.5
061E:  BCF    06.4
....................        
....................          if (vez_contador_tela_inicial){ 
061F:  MOVF   49,W
0620:  IORWF  4A,W
0621:  BTFSC  03.2
0622:  GOTO   64C
....................          output_low(DC); 
0623:  BSF    03.5
0624:  BCF    06.6
0625:  BCF    03.5
0626:  BCF    06.6
....................          output_high(DD); 
0627:  BSF    03.5
0628:  BCF    06.5
0629:  BCF    03.5
062A:  BSF    06.5
....................          if (!pasou_fase_3){ 
062B:  BTFSC  3C.6
062C:  GOTO   638
....................          output_d(listadisplay3[contador_tela_inicial]);    
062D:  MOVF   46,W
062E:  MOVWF  7A
062F:  MOVF   45,W
0630:  CALL   03F
0631:  MOVWF  4D
0632:  BSF    03.5
0633:  CLRF   08
0634:  BCF    03.5
0635:  MOVF   4D,W
0636:  MOVWF  08
....................          }else { 
0637:  GOTO   649
....................          output_d(listadisplay3[contador_tela_inicial+6]); 
0638:  MOVLW  06
0639:  ADDWF  45,W
063A:  MOVWF  4D
063B:  MOVF   46,W
063C:  MOVWF  4E
063D:  BTFSC  03.0
063E:  INCF   4E,F
063F:  MOVF   4E,W
0640:  MOVWF  7A
0641:  MOVF   4D,W
0642:  CALL   03F
0643:  MOVWF  4F
0644:  BSF    03.5
0645:  CLRF   08
0646:  BCF    03.5
0647:  MOVF   4F,W
0648:  MOVWF  08
....................          } 
....................  
....................          vez_contador_tela_inicial=0; 
0649:  CLRF   4A
064A:  CLRF   49
....................          }  else { 
064B:  GOTO   675
....................          output_low(DD); 
064C:  BSF    03.5
064D:  BCF    06.5
064E:  BCF    03.5
064F:  BCF    06.5
....................          output_high(DC); 
0650:  BSF    03.5
0651:  BCF    06.6
0652:  BCF    03.5
0653:  BSF    06.6
....................           
....................          if (!pasou_fase_2){ 
0654:  BTFSC  3C.5
0655:  GOTO   661
....................          output_d(listadisplay2[contador_tela_inicial]);    
0656:  MOVF   46,W
0657:  MOVWF  7A
0658:  MOVF   45,W
0659:  CALL   04F
065A:  MOVWF  4D
065B:  BSF    03.5
065C:  CLRF   08
065D:  BCF    03.5
065E:  MOVF   4D,W
065F:  MOVWF  08
....................          }else { 
0660:  GOTO   672
....................          output_d(listadisplay2[contador_tela_inicial+6]); 
0661:  MOVLW  06
0662:  ADDWF  45,W
0663:  MOVWF  4D
0664:  MOVF   46,W
0665:  MOVWF  4E
0666:  BTFSC  03.0
0667:  INCF   4E,F
0668:  MOVF   4E,W
0669:  MOVWF  7A
066A:  MOVF   4D,W
066B:  CALL   04F
066C:  MOVWF  4F
066D:  BSF    03.5
066E:  CLRF   08
066F:  BCF    03.5
0670:  MOVF   4F,W
0671:  MOVWF  08
....................          } 
....................        
....................          vez_contador_tela_inicial=1; 
0672:  CLRF   4A
0673:  MOVLW  01
0674:  MOVWF  49
....................            }     
....................    
....................       } else   { 
0675:  GOTO   6D4
....................          output_low(DD); 
0676:  BSF    03.5
0677:  BCF    06.5
0678:  BCF    03.5
0679:  BCF    06.5
....................          output_low(DC); 
067A:  BSF    03.5
067B:  BCF    06.6
067C:  BCF    03.5
067D:  BCF    06.6
....................        
....................          if (vez_contador_tela_inicial){ 
067E:  MOVF   49,W
067F:  IORWF  4A,W
0680:  BTFSC  03.2
0681:  GOTO   6AB
....................          output_low(DM); 
0682:  BSF    03.5
0683:  BCF    06.7
0684:  BCF    03.5
0685:  BCF    06.7
....................          output_high(DU); 
0686:  BSF    03.5
0687:  BCF    06.4
0688:  BCF    03.5
0689:  BSF    06.4
....................           
....................          if (!pasou_fase_4){ 
068A:  BTFSC  3C.7
068B:  GOTO   697
....................          output_d(listadisplay4[contador_tela_inicial]);    
068C:  MOVF   46,W
068D:  MOVWF  7A
068E:  MOVF   45,W
068F:  CALL   02F
0690:  MOVWF  4D
0691:  BSF    03.5
0692:  CLRF   08
0693:  BCF    03.5
0694:  MOVF   4D,W
0695:  MOVWF  08
....................          }else { 
0696:  GOTO   6A8
....................          output_d(listadisplay4[contador_tela_inicial+6]); 
0697:  MOVLW  06
0698:  ADDWF  45,W
0699:  MOVWF  4D
069A:  MOVF   46,W
069B:  MOVWF  4E
069C:  BTFSC  03.0
069D:  INCF   4E,F
069E:  MOVF   4E,W
069F:  MOVWF  7A
06A0:  MOVF   4D,W
06A1:  CALL   02F
06A2:  MOVWF  4F
06A3:  BSF    03.5
06A4:  CLRF   08
06A5:  BCF    03.5
06A6:  MOVF   4F,W
06A7:  MOVWF  08
....................          } 
....................        
....................          vez_contador_tela_inicial=0; 
06A8:  CLRF   4A
06A9:  CLRF   49
....................          }  else  { 
06AA:  GOTO   6D4
....................          output_low(DU); 
06AB:  BSF    03.5
06AC:  BCF    06.4
06AD:  BCF    03.5
06AE:  BCF    06.4
....................          output_high(DM); 
06AF:  BSF    03.5
06B0:  BCF    06.7
06B1:  BCF    03.5
06B2:  BSF    06.7
....................           
....................          if (!pasou_fase_1){ 
06B3:  BTFSC  3C.4
06B4:  GOTO   6C0
....................          output_d(listadisplay1[contador_tela_inicial]);    
06B5:  MOVF   46,W
06B6:  MOVWF  7A
06B7:  MOVF   45,W
06B8:  CALL   05F
06B9:  MOVWF  4D
06BA:  BSF    03.5
06BB:  CLRF   08
06BC:  BCF    03.5
06BD:  MOVF   4D,W
06BE:  MOVWF  08
....................          }else { 
06BF:  GOTO   6D1
....................          output_d(listadisplay1[contador_tela_inicial+6]); 
06C0:  MOVLW  06
06C1:  ADDWF  45,W
06C2:  MOVWF  4D
06C3:  MOVF   46,W
06C4:  MOVWF  4E
06C5:  BTFSC  03.0
06C6:  INCF   4E,F
06C7:  MOVF   4E,W
06C8:  MOVWF  7A
06C9:  MOVF   4D,W
06CA:  CALL   05F
06CB:  MOVWF  4F
06CC:  BSF    03.5
06CD:  CLRF   08
06CE:  BCF    03.5
06CF:  MOVF   4F,W
06D0:  MOVWF  08
....................          } 
....................           
....................        
....................          vez_contador_tela_inicial=1; 
06D1:  CLRF   4A
06D2:  MOVLW  01
06D3:  MOVWF  49
....................          } 
....................       } 
....................       delay(35); 
06D4:  MOVLW  23
06D5:  MOVWF  4D
06D6:  CALL   603
06D7:  BSF    0A.3
06D8:  BCF    0A.4
06D9:  GOTO   5C0 (RETURN)
....................      
....................        
.................... } 
....................  
.................... void update_display() { 
....................    delay(25); 
*
06F1:  MOVLW  19
06F2:  MOVWF  4D
06F3:  CALL   603
....................    if (input_state(DU)) { 
06F4:  BTFSS  06.4
06F5:  GOTO   709
....................       output_low(DU); 
06F6:  BSF    03.5
06F7:  BCF    06.4
06F8:  BCF    03.5
06F9:  BCF    06.4
....................       output_high(DD); 
06FA:  BSF    03.5
06FB:  BCF    06.5
06FC:  BCF    03.5
06FD:  BSF    06.5
....................       output_d(display_numbers[dezena]); 
06FE:  MOVF   2E,W
06FF:  MOVWF  7A
0700:  MOVF   2D,W
0701:  CALL   51E
0702:  MOVWF  4D
0703:  BSF    03.5
0704:  CLRF   08
0705:  BCF    03.5
0706:  MOVF   4D,W
0707:  MOVWF  08
....................    } else if (input_state(DD)) { 
0708:  GOTO   745
0709:  BTFSS  06.5
070A:  GOTO   71E
....................       output_low(DD); 
070B:  BSF    03.5
070C:  BCF    06.5
070D:  BCF    03.5
070E:  BCF    06.5
....................       output_high(DC); 
070F:  BSF    03.5
0710:  BCF    06.6
0711:  BCF    03.5
0712:  BSF    06.6
....................       output_d(display_numbers[centena]); 
0713:  MOVF   30,W
0714:  MOVWF  7A
0715:  MOVF   2F,W
0716:  CALL   51E
0717:  MOVWF  4D
0718:  BSF    03.5
0719:  CLRF   08
071A:  BCF    03.5
071B:  MOVF   4D,W
071C:  MOVWF  08
....................    } else if (input_state(DC)) { 
071D:  GOTO   745
071E:  BTFSS  06.6
071F:  GOTO   733
....................       output_low(DC); 
0720:  BSF    03.5
0721:  BCF    06.6
0722:  BCF    03.5
0723:  BCF    06.6
....................       output_high(DM); 
0724:  BSF    03.5
0725:  BCF    06.7
0726:  BCF    03.5
0727:  BSF    06.7
....................       output_d(display_numbers[milhar]); 
0728:  MOVF   32,W
0729:  MOVWF  7A
072A:  MOVF   31,W
072B:  CALL   51E
072C:  MOVWF  4D
072D:  BSF    03.5
072E:  CLRF   08
072F:  BCF    03.5
0730:  MOVF   4D,W
0731:  MOVWF  08
....................    } else { 
0732:  GOTO   745
....................       output_low(DM); 
0733:  BSF    03.5
0734:  BCF    06.7
0735:  BCF    03.5
0736:  BCF    06.7
....................       output_high(DU); 
0737:  BSF    03.5
0738:  BCF    06.4
0739:  BCF    03.5
073A:  BSF    06.4
....................       output_d(display_numbers[unidade]); 
073B:  MOVF   2C,W
073C:  MOVWF  7A
073D:  MOVF   2B,W
073E:  CALL   51E
073F:  MOVWF  4D
0740:  BSF    03.5
0741:  CLRF   08
0742:  BCF    03.5
0743:  MOVF   4D,W
0744:  MOVWF  08
....................    } 
0745:  RETURN
.................... } 
....................  

Configuration Fuses:
   Word  1: 3971   XT NOWDT PUT BROWNOUT NOLVP NOCPD WRT_1000 NODEBUG NOPROTECT
