CCS PCM C Compiler, Version 5.076, 56587               30-nov-24 18:27

               Filename:   C:\projects\trabalho_final_microcontroladores\main.lst

               ROM used:   3756 words (46%)
                           Largest free fragment is 2048
               RAM used:   54 (15%) at main() level
                           64 (17%) worst case
               Stack used: 4 locations (3 in main + 1 for interrupts)
               Stack size: 8

*
0000:  MOVLW  0D
0001:  MOVWF  0A
0002:  GOTO   507
0003:  NOP
0004:  MOVWF  7F
0005:  SWAPF  03,W
0006:  CLRF   03
0007:  MOVWF  21
0008:  MOVF   0A,W
0009:  MOVWF  20
000A:  CLRF   0A
000B:  MOVF   04,W
000C:  MOVWF  22
000D:  MOVF   77,W
000E:  MOVWF  23
000F:  MOVF   78,W
0010:  MOVWF  24
0011:  MOVF   79,W
0012:  MOVWF  25
0013:  MOVF   7A,W
0014:  MOVWF  26
0015:  BCF    03.7
0016:  BCF    03.5
0017:  BTFSS  0B.5
0018:  GOTO   01B
0019:  BTFSC  0B.2
001A:  GOTO   02C
001B:  MOVF   22,W
001C:  MOVWF  04
001D:  MOVF   23,W
001E:  MOVWF  77
001F:  MOVF   24,W
0020:  MOVWF  78
0021:  MOVF   25,W
0022:  MOVWF  79
0023:  MOVF   26,W
0024:  MOVWF  7A
0025:  MOVF   20,W
0026:  MOVWF  0A
0027:  SWAPF  21,W
0028:  MOVWF  03
0029:  SWAPF  7F,F
002A:  SWAPF  7F,W
002B:  RETFIE
002C:  BCF    0A.3
002D:  BCF    0A.4
002E:  GOTO   52F
.................... #include <main.h> 
.................... #include <16F877A.h> 
.................... //////////// Standard Header file for the PIC16F877A device //////////////// 
.................... /////////////////////////////////////////////////////////////////////////// 
.................... ////        (C) Copyright 1996, 2014 Custom Computer Services          //// 
.................... //// This source code may only be used by licensed users of the CCS C  //// 
.................... //// compiler.  This source code may only be distributed to other      //// 
.................... //// licensed users of the CCS C compiler.  No other use, reproduction //// 
.................... //// or distribution is permitted without written permission.          //// 
.................... //// Derivative programs created using this software in object code    //// 
.................... //// form are not restricted in any way.                               //// 
.................... /////////////////////////////////////////////////////////////////////////// 
.................... #device PIC16F877A 
002F:  BCF    0A.0
0030:  BCF    0A.1
0031:  BCF    0A.2
0032:  ADDWF  02,F
0033:  RETLW  08
0034:  RETLW  00
0035:  RETLW  00
0036:  RETLW  01
0037:  RETLW  02
0038:  RETLW  04
0039:  RETLW  48
003A:  RETLW  40
003B:  RETLW  40
003C:  RETLW  41
003D:  RETLW  42
003E:  RETLW  44
003F:  BCF    0A.0
0040:  BCF    0A.1
0041:  BCF    0A.2
0042:  ADDWF  02,F
0043:  RETLW  00
0044:  RETLW  08
0045:  RETLW  01
0046:  RETLW  00
0047:  RETLW  00
0048:  RETLW  00
0049:  RETLW  00
004A:  RETLW  48
004B:  RETLW  41
004C:  RETLW  00
004D:  RETLW  00
004E:  RETLW  00
004F:  BCF    0A.0
0050:  BCF    0A.1
0051:  BCF    0A.2
0052:  ADDWF  02,F
0053:  RETLW  00
0054:  RETLW  01
0055:  RETLW  08
0056:  RETLW  00
0057:  RETLW  00
0058:  RETLW  00
0059:  RETLW  00
005A:  RETLW  41
005B:  RETLW  48
005C:  RETLW  00
005D:  RETLW  00
005E:  RETLW  00
005F:  BCF    0A.0
0060:  BCF    0A.1
0061:  BCF    0A.2
0062:  ADDWF  02,F
0063:  RETLW  01
0064:  RETLW  00
0065:  RETLW  00
0066:  RETLW  08
0067:  RETLW  10
0068:  RETLW  20
0069:  RETLW  41
006A:  RETLW  40
006B:  RETLW  40
006C:  RETLW  48
006D:  RETLW  50
006E:  RETLW  60
006F:  BCF    0A.0
0070:  BCF    0A.1
0071:  BCF    0A.2
0072:  ADDWF  02,F
0073:  RETLW  04
0074:  RETLW  03
0075:  RETLW  02
0076:  RETLW  01
0077:  RETLW  00
0078:  RETLW  03
0079:  RETLW  02
007A:  RETLW  01
007B:  RETLW  00
007C:  RETLW  03
007D:  RETLW  02
007E:  RETLW  01
007F:  RETLW  00
0080:  RETLW  03
0081:  RETLW  02
0082:  RETLW  01
0083:  RETLW  00
0084:  RETLW  05
0085:  RETLW  04
0086:  RETLW  03
0087:  RETLW  02
0088:  RETLW  01
0089:  RETLW  00
008A:  RETLW  05
008B:  RETLW  04
008C:  RETLW  03
008D:  RETLW  02
008E:  RETLW  01
008F:  RETLW  00
0090:  RETLW  08
0091:  RETLW  07
0092:  RETLW  06
0093:  RETLW  05
0094:  RETLW  04
0095:  RETLW  03
0096:  RETLW  02
0097:  RETLW  01
0098:  RETLW  00
0099:  RETLW  08
009A:  RETLW  07
009B:  RETLW  06
009C:  RETLW  05
009D:  RETLW  04
009E:  RETLW  03
009F:  RETLW  02
00A0:  RETLW  01
00A1:  RETLW  00
00A2:  RETLW  05
00A3:  RETLW  04
00A4:  RETLW  03
00A5:  RETLW  02
00A6:  RETLW  01
00A7:  RETLW  00
00A8:  RETLW  0A
00A9:  RETLW  0B
00AA:  RETLW  0B
00AB:  RETLW  0C
00AC:  RETLW  0C
00AD:  BCF    0A.0
00AE:  BCF    0A.1
00AF:  BCF    0A.2
00B0:  ADDWF  02,F
00B1:  RETLW  03
00B2:  RETLW  02
00B3:  RETLW  01
00B4:  RETLW  00
00B5:  RETLW  00
00B6:  RETLW  02
00B7:  RETLW  01
00B8:  RETLW  00
00B9:  RETLW  06
00BA:  RETLW  05
00BB:  RETLW  04
00BC:  RETLW  03
00BD:  RETLW  02
00BE:  RETLW  01
00BF:  RETLW  00
00C0:  RETLW  04
00C1:  RETLW  03
00C2:  RETLW  02
00C3:  RETLW  01
00C4:  RETLW  00
00C5:  RETLW  02
00C6:  RETLW  01
00C7:  RETLW  00
00C8:  RETLW  02
00C9:  RETLW  01
00CA:  RETLW  00
00CB:  RETLW  03
00CC:  RETLW  02
00CD:  RETLW  01
00CE:  RETLW  00
00CF:  RETLW  02
00D0:  RETLW  01
00D1:  RETLW  00
00D2:  RETLW  01
00D3:  RETLW  00
00D4:  RETLW  01
00D5:  RETLW  00
00D6:  RETLW  04
00D7:  RETLW  03
00D8:  RETLW  02
00D9:  RETLW  01
00DA:  RETLW  00
00DB:  RETLW  02
00DC:  RETLW  01
00DD:  RETLW  00
00DE:  RETLW  05
00DF:  RETLW  04
00E0:  RETLW  03
00E1:  RETLW  02
00E2:  RETLW  01
00E3:  RETLW  00
00E4:  RETLW  0A
00E5:  RETLW  0A
00E6:  RETLW  0A
00E7:  RETLW  0B
00E8:  RETLW  0B
00E9:  RETLW  0C
00EA:  RETLW  0C
00EB:  BCF    0A.0
00EC:  BCF    0A.1
00ED:  BCF    0A.2
00EE:  ADDLW  F2
00EF:  BTFSC  03.0
00F0:  INCF   0A,F
00F1:  MOVWF  02
00F2:  RETLW  03
00F3:  RETLW  02
00F4:  RETLW  01
00F5:  RETLW  00
00F6:  RETLW  00
00F7:  RETLW  02
00F8:  RETLW  01
00F9:  RETLW  00
00FA:  RETLW  06
00FB:  RETLW  05
00FC:  RETLW  04
00FD:  RETLW  03
00FE:  RETLW  02
00FF:  RETLW  01
0100:  RETLW  00
0101:  RETLW  02
0102:  RETLW  01
0103:  RETLW  00
0104:  RETLW  05
0105:  RETLW  04
0106:  RETLW  03
0107:  RETLW  02
0108:  RETLW  01
0109:  RETLW  00
010A:  RETLW  02
010B:  RETLW  01
010C:  RETLW  00
010D:  RETLW  02
010E:  RETLW  01
010F:  RETLW  00
0110:  RETLW  07
0111:  RETLW  06
0112:  RETLW  05
0113:  RETLW  04
0114:  RETLW  03
0115:  RETLW  02
0116:  RETLW  01
0117:  RETLW  00
0118:  RETLW  05
0119:  RETLW  04
011A:  RETLW  03
011B:  RETLW  02
011C:  RETLW  01
011D:  RETLW  00
011E:  RETLW  02
011F:  RETLW  01
0120:  RETLW  00
0121:  RETLW  01
0122:  RETLW  00
0123:  RETLW  0A
0124:  RETLW  0A
0125:  RETLW  0A
0126:  RETLW  0A
0127:  RETLW  0A
0128:  RETLW  0B
0129:  RETLW  0B
012A:  RETLW  0C
012B:  RETLW  0C
012C:  BSF    0A.0
012D:  BCF    0A.1
012E:  BCF    0A.2
012F:  ADDWF  02,F
0130:  RETLW  02
0131:  RETLW  01
0132:  RETLW  00
0133:  RETLW  01
0134:  RETLW  00
0135:  RETLW  01
0136:  RETLW  00
0137:  RETLW  01
0138:  RETLW  00
0139:  RETLW  09
013A:  RETLW  08
013B:  RETLW  07
013C:  RETLW  06
013D:  RETLW  05
013E:  RETLW  04
013F:  RETLW  03
0140:  RETLW  02
0141:  RETLW  01
0142:  RETLW  00
0143:  RETLW  05
0144:  RETLW  04
0145:  RETLW  03
0146:  RETLW  02
0147:  RETLW  01
0148:  RETLW  00
0149:  RETLW  03
014A:  RETLW  02
014B:  RETLW  01
014C:  RETLW  00
014D:  RETLW  03
014E:  RETLW  02
014F:  RETLW  01
0150:  RETLW  00
0151:  RETLW  02
0152:  RETLW  01
0153:  RETLW  00
0154:  RETLW  04
0155:  RETLW  03
0156:  RETLW  02
0157:  RETLW  01
0158:  RETLW  00
0159:  RETLW  08
015A:  RETLW  07
015B:  RETLW  06
015C:  RETLW  05
015D:  RETLW  04
015E:  RETLW  03
015F:  RETLW  02
0160:  RETLW  01
0161:  RETLW  00
0162:  RETLW  0A
0163:  RETLW  0A
0164:  RETLW  0A
0165:  RETLW  0A
0166:  RETLW  0B
0167:  RETLW  0B
0168:  RETLW  0C
0169:  RETLW  0C
016A:  BSF    0A.0
016B:  BCF    0A.1
016C:  BCF    0A.2
016D:  ADDWF  02,F
016E:  RETLW  01
016F:  RETLW  00
0170:  RETLW  05
0171:  RETLW  04
0172:  RETLW  03
0173:  RETLW  02
0174:  RETLW  01
0175:  RETLW  00
0176:  RETLW  02
0177:  RETLW  01
0178:  RETLW  00
0179:  RETLW  01
017A:  RETLW  00
017B:  RETLW  05
017C:  RETLW  04
017D:  RETLW  03
017E:  RETLW  02
017F:  RETLW  01
0180:  RETLW  00
0181:  RETLW  02
0182:  RETLW  01
0183:  RETLW  00
0184:  RETLW  01
0185:  RETLW  00
0186:  RETLW  02
0187:  RETLW  01
0188:  RETLW  00
0189:  RETLW  01
018A:  RETLW  00
018B:  RETLW  01
018C:  RETLW  00
018D:  RETLW  01
018E:  RETLW  00
018F:  RETLW  01
0190:  RETLW  00
0191:  RETLW  08
0192:  RETLW  07
0193:  RETLW  06
0194:  RETLW  05
0195:  RETLW  04
0196:  RETLW  03
0197:  RETLW  02
0198:  RETLW  01
0199:  RETLW  00
019A:  RETLW  07
019B:  RETLW  06
019C:  RETLW  05
019D:  RETLW  04
019E:  RETLW  03
019F:  RETLW  02
01A0:  RETLW  01
01A1:  RETLW  00
01A2:  RETLW  0A
01A3:  RETLW  0A
01A4:  RETLW  0A
01A5:  RETLW  0A
01A6:  RETLW  0B
01A7:  RETLW  0B
01A8:  RETLW  0B
01A9:  RETLW  0C
01AA:  RETLW  0C
01AB:  BSF    0A.0
01AC:  BCF    0A.1
01AD:  BCF    0A.2
01AE:  ADDWF  02,F
01AF:  RETLW  02
01B0:  RETLW  01
01B1:  RETLW  00
01B2:  RETLW  03
01B3:  RETLW  02
01B4:  RETLW  01
01B5:  RETLW  00
01B6:  RETLW  02
01B7:  RETLW  01
01B8:  RETLW  00
01B9:  RETLW  01
01BA:  RETLW  00
01BB:  RETLW  01
01BC:  RETLW  00
01BD:  RETLW  03
01BE:  RETLW  02
01BF:  RETLW  01
01C0:  RETLW  00
01C1:  RETLW  02
01C2:  RETLW  01
01C3:  RETLW  00
01C4:  RETLW  01
01C5:  RETLW  00
01C6:  RETLW  02
01C7:  RETLW  01
01C8:  RETLW  00
01C9:  RETLW  01
01CA:  RETLW  00
01CB:  RETLW  01
01CC:  RETLW  00
01CD:  RETLW  01
01CE:  RETLW  00
01CF:  RETLW  03
01D0:  RETLW  02
01D1:  RETLW  01
01D2:  RETLW  00
01D3:  RETLW  08
01D4:  RETLW  07
01D5:  RETLW  06
01D6:  RETLW  05
01D7:  RETLW  04
01D8:  RETLW  02
01D9:  RETLW  01
01DA:  RETLW  00
01DB:  RETLW  06
01DC:  RETLW  05
01DD:  RETLW  04
01DE:  RETLW  03
01DF:  RETLW  02
01E0:  RETLW  01
01E1:  RETLW  00
01E2:  RETLW  01
01E3:  RETLW  00
01E4:  RETLW  0A
01E5:  RETLW  0A
01E6:  RETLW  0A
01E7:  RETLW  0B
01E8:  RETLW  0B
01E9:  RETLW  0B
01EA:  RETLW  0C
01EB:  RETLW  0C
01EC:  BSF    0A.0
01ED:  BCF    0A.1
01EE:  BCF    0A.2
01EF:  ADDLW  F3
01F0:  BTFSC  03.0
01F1:  INCF   0A,F
01F2:  MOVWF  02
01F3:  RETLW  03
01F4:  RETLW  02
01F5:  RETLW  01
01F6:  RETLW  00
01F7:  RETLW  01
01F8:  RETLW  00
01F9:  RETLW  03
01FA:  RETLW  02
01FB:  RETLW  01
01FC:  RETLW  00
01FD:  RETLW  01
01FE:  RETLW  00
01FF:  RETLW  02
0200:  RETLW  01
0201:  RETLW  00
0202:  RETLW  01
0203:  RETLW  00
0204:  RETLW  03
0205:  RETLW  02
0206:  RETLW  01
0207:  RETLW  00
0208:  RETLW  01
0209:  RETLW  00
020A:  RETLW  03
020B:  RETLW  02
020C:  RETLW  01
020D:  RETLW  00
020E:  RETLW  01
020F:  RETLW  00
0210:  RETLW  07
0211:  RETLW  06
0212:  RETLW  05
0213:  RETLW  04
0214:  RETLW  03
0215:  RETLW  02
0216:  RETLW  01
0217:  RETLW  00
0218:  RETLW  01
0219:  RETLW  00
021A:  RETLW  01
021B:  RETLW  00
021C:  RETLW  02
021D:  RETLW  01
021E:  RETLW  00
021F:  RETLW  05
0220:  RETLW  04
0221:  RETLW  03
0222:  RETLW  02
0223:  RETLW  01
0224:  RETLW  00
0225:  RETLW  03
0226:  RETLW  02
0227:  RETLW  01
0228:  RETLW  00
0229:  RETLW  0A
022A:  RETLW  0A
022B:  RETLW  0B
022C:  RETLW  0B
022D:  RETLW  0B
022E:  RETLW  0C
022F:  RETLW  0C
0230:  BCF    0A.0
0231:  BSF    0A.1
0232:  BCF    0A.2
0233:  ADDWF  02,F
0234:  RETLW  04
0235:  RETLW  03
0236:  RETLW  02
0237:  RETLW  01
0238:  RETLW  00
0239:  RETLW  05
023A:  RETLW  04
023B:  RETLW  03
023C:  RETLW  02
023D:  RETLW  01
023E:  RETLW  00
023F:  RETLW  04
0240:  RETLW  03
0241:  RETLW  02
0242:  RETLW  01
0243:  RETLW  00
0244:  RETLW  05
0245:  RETLW  04
0246:  RETLW  03
0247:  RETLW  02
0248:  RETLW  01
0249:  RETLW  00
024A:  RETLW  03
024B:  RETLW  02
024C:  RETLW  01
024D:  RETLW  00
024E:  RETLW  01
024F:  RETLW  00
0250:  RETLW  01
0251:  RETLW  00
0252:  RETLW  07
0253:  RETLW  06
0254:  RETLW  05
0255:  RETLW  04
0256:  RETLW  03
0257:  RETLW  02
0258:  RETLW  01
0259:  RETLW  00
025A:  RETLW  01
025B:  RETLW  00
025C:  RETLW  01
025D:  RETLW  00
025E:  RETLW  01
025F:  RETLW  00
0260:  RETLW  04
0261:  RETLW  03
0262:  RETLW  02
0263:  RETLW  01
0264:  RETLW  00
0265:  RETLW  05
0266:  RETLW  04
0267:  RETLW  03
0268:  RETLW  02
0269:  RETLW  01
026A:  RETLW  00
026B:  RETLW  0A
026C:  RETLW  0B
026D:  RETLW  0B
026E:  RETLW  0B
026F:  RETLW  0C
0270:  RETLW  0C
0271:  BCF    0A.0
0272:  BSF    0A.1
0273:  BCF    0A.2
0274:  ADDWF  02,F
0275:  RETLW  02
0276:  RETLW  01
0277:  RETLW  00
0278:  RETLW  02
0279:  RETLW  01
027A:  RETLW  00
027B:  RETLW  02
027C:  RETLW  01
027D:  RETLW  00
027E:  RETLW  02
027F:  RETLW  01
0280:  RETLW  00
0281:  RETLW  03
0282:  RETLW  02
0283:  RETLW  01
0284:  RETLW  00
0285:  RETLW  03
0286:  RETLW  02
0287:  RETLW  01
0288:  RETLW  00
0289:  RETLW  02
028A:  RETLW  01
028B:  RETLW  00
028C:  RETLW  01
028D:  RETLW  00
028E:  RETLW  01
028F:  RETLW  00
0290:  RETLW  01
0291:  RETLW  00
0292:  RETLW  01
0293:  RETLW  00
0294:  RETLW  03
0295:  RETLW  02
0296:  RETLW  01
0297:  RETLW  00
0298:  RETLW  01
0299:  RETLW  00
029A:  RETLW  04
029B:  RETLW  03
029C:  RETLW  02
029D:  RETLW  01
029E:  RETLW  00
029F:  RETLW  06
02A0:  RETLW  05
02A1:  RETLW  04
02A2:  RETLW  03
02A3:  RETLW  02
02A4:  RETLW  01
02A5:  RETLW  00
02A6:  RETLW  02
02A7:  RETLW  01
02A8:  RETLW  00
02A9:  RETLW  02
02AA:  RETLW  01
02AB:  RETLW  00
02AC:  RETLW  05
02AD:  RETLW  04
02AE:  RETLW  03
02AF:  RETLW  02
02B0:  RETLW  01
02B1:  RETLW  00
02B2:  RETLW  02
02B3:  RETLW  01
02B4:  RETLW  00
02B5:  RETLW  02
02B6:  RETLW  01
02B7:  RETLW  00
02B8:  RETLW  02
02B9:  RETLW  01
02BA:  RETLW  00
02BB:  RETLW  02
02BC:  RETLW  01
02BD:  RETLW  00
02BE:  RETLW  04
02BF:  RETLW  03
02C0:  RETLW  02
02C1:  RETLW  01
02C2:  RETLW  00
02C3:  RETLW  02
02C4:  RETLW  01
02C5:  RETLW  00
02C6:  RETLW  05
02C7:  RETLW  04
02C8:  RETLW  03
02C9:  RETLW  02
02CA:  RETLW  01
02CB:  RETLW  00
02CC:  RETLW  02
02CD:  RETLW  01
02CE:  RETLW  00
02CF:  RETLW  01
02D0:  RETLW  00
02D1:  RETLW  01
02D2:  RETLW  00
02D3:  RETLW  01
02D4:  RETLW  00
02D5:  RETLW  01
02D6:  RETLW  00
02D7:  RETLW  01
02D8:  RETLW  00
02D9:  RETLW  0B
02DA:  RETLW  0B
02DB:  RETLW  0B
02DC:  RETLW  0C
02DD:  RETLW  0C
02DE:  BCF    0A.0
02DF:  BSF    0A.1
02E0:  BCF    0A.2
02E1:  ADDLW  E5
02E2:  BTFSC  03.0
02E3:  INCF   0A,F
02E4:  MOVWF  02
02E5:  RETLW  02
02E6:  RETLW  01
02E7:  RETLW  00
02E8:  RETLW  02
02E9:  RETLW  01
02EA:  RETLW  00
02EB:  RETLW  02
02EC:  RETLW  01
02ED:  RETLW  00
02EE:  RETLW  02
02EF:  RETLW  01
02F0:  RETLW  00
02F1:  RETLW  03
02F2:  RETLW  02
02F3:  RETLW  01
02F4:  RETLW  00
02F5:  RETLW  03
02F6:  RETLW  02
02F7:  RETLW  01
02F8:  RETLW  00
02F9:  RETLW  04
02FA:  RETLW  03
02FB:  RETLW  02
02FC:  RETLW  01
02FD:  RETLW  00
02FE:  RETLW  03
02FF:  RETLW  02
0300:  RETLW  01
0301:  RETLW  00
0302:  RETLW  03
0303:  RETLW  02
0304:  RETLW  01
0305:  RETLW  00
0306:  RETLW  01
0307:  RETLW  00
0308:  RETLW  01
0309:  RETLW  00
030A:  RETLW  02
030B:  RETLW  01
030C:  RETLW  00
030D:  RETLW  01
030E:  RETLW  00
030F:  RETLW  01
0310:  RETLW  00
0311:  RETLW  04
0312:  RETLW  03
0313:  RETLW  02
0314:  RETLW  01
0315:  RETLW  00
0316:  RETLW  02
0317:  RETLW  01
0318:  RETLW  00
0319:  RETLW  05
031A:  RETLW  04
031B:  RETLW  03
031C:  RETLW  02
031D:  RETLW  01
031E:  RETLW  00
031F:  RETLW  02
0320:  RETLW  01
0321:  RETLW  00
0322:  RETLW  02
0323:  RETLW  01
0324:  RETLW  00
0325:  RETLW  02
0326:  RETLW  01
0327:  RETLW  00
0328:  RETLW  02
0329:  RETLW  01
032A:  RETLW  00
032B:  RETLW  02
032C:  RETLW  01
032D:  RETLW  00
032E:  RETLW  03
032F:  RETLW  02
0330:  RETLW  01
0331:  RETLW  00
0332:  RETLW  01
0333:  RETLW  00
0334:  RETLW  02
0335:  RETLW  01
0336:  RETLW  00
0337:  RETLW  03
0338:  RETLW  02
0339:  RETLW  01
033A:  RETLW  00
033B:  RETLW  02
033C:  RETLW  01
033D:  RETLW  00
033E:  RETLW  02
033F:  RETLW  01
0340:  RETLW  00
0341:  RETLW  01
0342:  RETLW  00
0343:  RETLW  0A
0344:  RETLW  0A
0345:  RETLW  0A
0346:  RETLW  0A
0347:  RETLW  0A
0348:  RETLW  0A
0349:  RETLW  0B
034A:  RETLW  0B
034B:  RETLW  0B
034C:  RETLW  0C
034D:  RETLW  0C
034E:  BSF    0A.0
034F:  BSF    0A.1
0350:  BCF    0A.2
0351:  ADDWF  02,F
0352:  RETLW  02
0353:  RETLW  01
0354:  RETLW  00
0355:  RETLW  02
0356:  RETLW  01
0357:  RETLW  00
0358:  RETLW  02
0359:  RETLW  01
035A:  RETLW  00
035B:  RETLW  02
035C:  RETLW  01
035D:  RETLW  00
035E:  RETLW  03
035F:  RETLW  02
0360:  RETLW  01
0361:  RETLW  00
0362:  RETLW  06
0363:  RETLW  05
0364:  RETLW  04
0365:  RETLW  03
0366:  RETLW  02
0367:  RETLW  01
0368:  RETLW  00
0369:  RETLW  03
036A:  RETLW  02
036B:  RETLW  01
036C:  RETLW  00
036D:  RETLW  01
036E:  RETLW  00
036F:  RETLW  01
0370:  RETLW  00
0371:  RETLW  01
0372:  RETLW  00
0373:  RETLW  02
0374:  RETLW  01
0375:  RETLW  00
0376:  RETLW  01
0377:  RETLW  00
0378:  RETLW  01
0379:  RETLW  00
037A:  RETLW  03
037B:  RETLW  02
037C:  RETLW  01
037D:  RETLW  00
037E:  RETLW  01
037F:  RETLW  00
0380:  RETLW  02
0381:  RETLW  01
0382:  RETLW  00
0383:  RETLW  05
0384:  RETLW  04
0385:  RETLW  03
0386:  RETLW  02
0387:  RETLW  01
0388:  RETLW  00
0389:  RETLW  02
038A:  RETLW  01
038B:  RETLW  00
038C:  RETLW  02
038D:  RETLW  01
038E:  RETLW  00
038F:  RETLW  02
0390:  RETLW  01
0391:  RETLW  00
0392:  RETLW  02
0393:  RETLW  01
0394:  RETLW  00
0395:  RETLW  02
0396:  RETLW  01
0397:  RETLW  00
0398:  RETLW  02
0399:  RETLW  01
039A:  RETLW  00
039B:  RETLW  02
039C:  RETLW  01
039D:  RETLW  00
039E:  RETLW  03
039F:  RETLW  02
03A0:  RETLW  01
03A1:  RETLW  00
03A2:  RETLW  02
03A3:  RETLW  01
03A4:  RETLW  00
03A5:  RETLW  01
03A6:  RETLW  00
03A7:  RETLW  02
03A8:  RETLW  01
03A9:  RETLW  00
03AA:  RETLW  03
03AB:  RETLW  02
03AC:  RETLW  01
03AD:  RETLW  00
03AE:  RETLW  01
03AF:  RETLW  00
03B0:  RETLW  01
03B1:  RETLW  00
03B2:  RETLW  0A
03B3:  RETLW  0A
03B4:  RETLW  0A
03B5:  RETLW  0A
03B6:  RETLW  0B
03B7:  RETLW  0B
03B8:  RETLW  0B
03B9:  RETLW  0C
03BA:  RETLW  0C
03BB:  BSF    0A.0
03BC:  BSF    0A.1
03BD:  BCF    0A.2
03BE:  ADDLW  C2
03BF:  BTFSC  03.0
03C0:  INCF   0A,F
03C1:  MOVWF  02
03C2:  RETLW  02
03C3:  RETLW  01
03C4:  RETLW  00
03C5:  RETLW  02
03C6:  RETLW  01
03C7:  RETLW  00
03C8:  RETLW  02
03C9:  RETLW  01
03CA:  RETLW  00
03CB:  RETLW  02
03CC:  RETLW  01
03CD:  RETLW  00
03CE:  RETLW  03
03CF:  RETLW  02
03D0:  RETLW  01
03D1:  RETLW  00
03D2:  RETLW  03
03D3:  RETLW  02
03D4:  RETLW  01
03D5:  RETLW  00
03D6:  RETLW  02
03D7:  RETLW  01
03D8:  RETLW  00
03D9:  RETLW  01
03DA:  RETLW  00
03DB:  RETLW  01
03DC:  RETLW  00
03DD:  RETLW  03
03DE:  RETLW  02
03DF:  RETLW  01
03E0:  RETLW  00
03E1:  RETLW  01
03E2:  RETLW  00
03E3:  RETLW  02
03E4:  RETLW  01
03E5:  RETLW  00
03E6:  RETLW  01
03E7:  RETLW  00
03E8:  RETLW  07
03E9:  RETLW  06
03EA:  RETLW  05
03EB:  RETLW  04
03EC:  RETLW  03
03ED:  RETLW  02
03EE:  RETLW  01
03EF:  RETLW  00
03F0:  RETLW  05
03F1:  RETLW  04
03F2:  RETLW  03
03F3:  RETLW  02
03F4:  RETLW  01
03F5:  RETLW  00
03F6:  RETLW  02
03F7:  RETLW  01
03F8:  RETLW  00
03F9:  RETLW  02
03FA:  RETLW  01
03FB:  RETLW  00
03FC:  RETLW  02
03FD:  RETLW  01
03FE:  RETLW  00
03FF:  RETLW  02
0400:  RETLW  01
0401:  RETLW  00
0402:  RETLW  02
0403:  RETLW  01
0404:  RETLW  00
0405:  RETLW  02
0406:  RETLW  01
0407:  RETLW  00
0408:  RETLW  02
0409:  RETLW  01
040A:  RETLW  00
040B:  RETLW  01
040C:  RETLW  00
040D:  RETLW  05
040E:  RETLW  04
040F:  RETLW  03
0410:  RETLW  02
0411:  RETLW  01
0412:  RETLW  00
0413:  RETLW  02
0414:  RETLW  01
0415:  RETLW  00
0416:  RETLW  02
0417:  RETLW  01
0418:  RETLW  00
0419:  RETLW  04
041A:  RETLW  03
041B:  RETLW  02
041C:  RETLW  01
041D:  RETLW  00
041E:  RETLW  01
041F:  RETLW  00
0420:  RETLW  01
0421:  RETLW  00
0422:  RETLW  01
0423:  RETLW  00
0424:  RETLW  0A
0425:  RETLW  0A
0426:  RETLW  0B
0427:  RETLW  0B
0428:  RETLW  0B
0429:  RETLW  0C
042A:  RETLW  0C
042B:  BCF    0A.0
042C:  BCF    0A.1
042D:  BSF    0A.2
042E:  ADDWF  02,F
042F:  RETLW  06
0430:  RETLW  05
0431:  RETLW  04
0432:  RETLW  03
0433:  RETLW  02
0434:  RETLW  01
0435:  RETLW  00
0436:  RETLW  01
0437:  RETLW  00
0438:  RETLW  07
0439:  RETLW  06
043A:  RETLW  05
043B:  RETLW  04
043C:  RETLW  03
043D:  RETLW  02
043E:  RETLW  01
043F:  RETLW  00
0440:  RETLW  03
0441:  RETLW  02
0442:  RETLW  01
0443:  RETLW  00
0444:  RETLW  02
0445:  RETLW  01
0446:  RETLW  00
0447:  RETLW  03
0448:  RETLW  02
0449:  RETLW  01
044A:  RETLW  00
044B:  RETLW  07
044C:  RETLW  06
044D:  RETLW  05
044E:  RETLW  04
044F:  RETLW  03
0450:  RETLW  02
0451:  RETLW  01
0452:  RETLW  00
0453:  RETLW  07
0454:  RETLW  06
0455:  RETLW  05
0456:  RETLW  04
0457:  RETLW  03
0458:  RETLW  02
0459:  RETLW  01
045A:  RETLW  00
045B:  RETLW  05
045C:  RETLW  04
045D:  RETLW  03
045E:  RETLW  02
045F:  RETLW  01
0460:  RETLW  00
0461:  RETLW  0A
0462:  RETLW  0A
0463:  RETLW  0B
0464:  RETLW  0B
0465:  RETLW  0C
0466:  RETLW  0C
0467:  BCF    0A.0
0468:  BCF    0A.1
0469:  BSF    0A.2
046A:  ADDWF  02,F
046B:  RETLW  05
046C:  RETLW  04
046D:  RETLW  03
046E:  RETLW  02
046F:  RETLW  01
0470:  RETLW  00
0471:  RETLW  01
0472:  RETLW  00
0473:  RETLW  01
0474:  RETLW  00
0475:  RETLW  05
0476:  RETLW  04
0477:  RETLW  03
0478:  RETLW  02
0479:  RETLW  01
047A:  RETLW  00
047B:  RETLW  03
047C:  RETLW  02
047D:  RETLW  01
047E:  RETLW  00
047F:  RETLW  04
0480:  RETLW  03
0481:  RETLW  02
0482:  RETLW  01
0483:  RETLW  00
0484:  RETLW  03
0485:  RETLW  02
0486:  RETLW  01
0487:  RETLW  00
0488:  RETLW  03
0489:  RETLW  02
048A:  RETLW  01
048B:  RETLW  00
048C:  RETLW  01
048D:  RETLW  00
048E:  RETLW  01
048F:  RETLW  00
0490:  RETLW  01
0491:  RETLW  00
0492:  RETLW  03
0493:  RETLW  02
0494:  RETLW  01
0495:  RETLW  00
0496:  RETLW  06
0497:  RETLW  05
0498:  RETLW  04
0499:  RETLW  03
049A:  RETLW  02
049B:  RETLW  01
049C:  RETLW  00
049D:  RETLW  0A
049E:  RETLW  0A
049F:  RETLW  0B
04A0:  RETLW  0B
04A1:  RETLW  0C
04A2:  RETLW  0C
04A3:  BCF    0A.0
04A4:  BCF    0A.1
04A5:  BSF    0A.2
04A6:  ADDWF  02,F
04A7:  RETLW  04
04A8:  RETLW  03
04A9:  RETLW  02
04AA:  RETLW  01
04AB:  RETLW  00
04AC:  RETLW  05
04AD:  RETLW  04
04AE:  RETLW  03
04AF:  RETLW  02
04B0:  RETLW  01
04B1:  RETLW  00
04B2:  RETLW  01
04B3:  RETLW  00
04B4:  RETLW  01
04B5:  RETLW  00
04B6:  RETLW  03
04B7:  RETLW  02
04B8:  RETLW  01
04B9:  RETLW  00
04BA:  RETLW  06
04BB:  RETLW  05
04BC:  RETLW  04
04BD:  RETLW  03
04BE:  RETLW  02
04BF:  RETLW  01
04C0:  RETLW  00
04C1:  RETLW  03
04C2:  RETLW  02
04C3:  RETLW  01
04C4:  RETLW  00
04C5:  RETLW  01
04C6:  RETLW  00
04C7:  RETLW  01
04C8:  RETLW  00
04C9:  RETLW  03
04CA:  RETLW  02
04CB:  RETLW  01
04CC:  RETLW  00
04CD:  RETLW  01
04CE:  RETLW  00
04CF:  RETLW  01
04D0:  RETLW  00
04D1:  RETLW  07
04D2:  RETLW  06
04D3:  RETLW  05
04D4:  RETLW  04
04D5:  RETLW  03
04D6:  RETLW  02
04D7:  RETLW  01
04D8:  RETLW  00
04D9:  RETLW  0A
04DA:  RETLW  0A
04DB:  RETLW  0B
04DC:  RETLW  0B
04DD:  RETLW  0C
04DE:  RETLW  0C
04DF:  BCF    0A.0
04E0:  BCF    0A.1
04E1:  BSF    0A.2
04E2:  ADDLW  E6
04E3:  BTFSC  03.0
04E4:  INCF   0A,F
04E5:  MOVWF  02
04E6:  RETLW  03
04E7:  RETLW  02
04E8:  RETLW  01
04E9:  RETLW  00
04EA:  RETLW  07
04EB:  RETLW  06
04EC:  RETLW  05
04ED:  RETLW  04
04EE:  RETLW  03
04EF:  RETLW  02
04F0:  RETLW  01
04F1:  RETLW  00
04F2:  RETLW  01
04F3:  RETLW  00
04F4:  RETLW  03
04F5:  RETLW  02
04F6:  RETLW  01
04F7:  RETLW  00
04F8:  RETLW  08
04F9:  RETLW  07
04FA:  RETLW  06
04FB:  RETLW  05
04FC:  RETLW  04
04FD:  RETLW  03
04FE:  RETLW  02
04FF:  RETLW  01
0500:  RETLW  00
0501:  RETLW  03
0502:  RETLW  02
0503:  RETLW  01
0504:  RETLW  00
0505:  RETLW  09
0506:  RETLW  08
0507:  RETLW  07
0508:  RETLW  06
0509:  RETLW  05
050A:  RETLW  04
050B:  RETLW  03
050C:  RETLW  02
050D:  RETLW  01
050E:  RETLW  00
050F:  RETLW  08
0510:  RETLW  07
0511:  RETLW  06
0512:  RETLW  05
0513:  RETLW  04
0514:  RETLW  03
0515:  RETLW  02
0516:  RETLW  01
0517:  RETLW  00
0518:  RETLW  0A
0519:  RETLW  0A
051A:  RETLW  0B
051B:  RETLW  0B
051C:  RETLW  0C
051D:  RETLW  0C
051E:  BSF    0A.0
051F:  BCF    0A.1
0520:  BSF    0A.2
0521:  ADDWF  02,F
0522:  RETLW  3F
0523:  RETLW  06
0524:  RETLW  5B
0525:  RETLW  4F
0526:  RETLW  66
0527:  RETLW  6D
0528:  RETLW  7D
0529:  RETLW  07
052A:  RETLW  7F
052B:  RETLW  6F
052C:  RETLW  08
052D:  RETLW  48
052E:  RETLW  49
*
059D:  CLRF   77
059E:  CLRF   78
059F:  MOVF   51,W
05A0:  BCF    03.0
05A1:  BTFSC  52.0
05A2:  ADDWF  77,F
05A3:  RRF    77,F
05A4:  RRF    78,F
05A5:  BTFSC  52.1
05A6:  ADDWF  77,F
05A7:  RRF    77,F
05A8:  RRF    78,F
05A9:  BTFSC  52.2
05AA:  ADDWF  77,F
05AB:  RRF    77,F
05AC:  RRF    78,F
05AD:  BTFSC  52.3
05AE:  ADDWF  77,F
05AF:  RRF    77,F
05B0:  RRF    78,F
05B1:  BTFSC  52.4
05B2:  ADDWF  77,F
05B3:  RRF    77,F
05B4:  RRF    78,F
05B5:  BTFSC  52.5
05B6:  ADDWF  77,F
05B7:  RRF    77,F
05B8:  RRF    78,F
05B9:  BTFSC  52.6
05BA:  ADDWF  77,F
05BB:  RRF    77,F
05BC:  RRF    78,F
05BD:  BTFSC  52.7
05BE:  ADDWF  77,F
05BF:  RRF    77,F
05C0:  RRF    78,F
05C1:  RETURN
05C2:  CLRF   78
05C3:  CLRF   79
05C4:  CLRF   77
05C5:  CLRF   7A
05C6:  MOVF   54,W
05C7:  BTFSS  03.2
05C8:  GOTO   5CC
05C9:  MOVF   53,W
05CA:  BTFSC  03.2
05CB:  GOTO   5E6
05CC:  MOVLW  10
05CD:  MOVWF  55
05CE:  BCF    03.0
05CF:  RLF    51,F
05D0:  RLF    52,F
05D1:  RLF    77,F
05D2:  RLF    7A,F
05D3:  MOVF   54,W
05D4:  SUBWF  7A,W
05D5:  BTFSS  03.2
05D6:  GOTO   5D9
05D7:  MOVF   53,W
05D8:  SUBWF  77,W
05D9:  BTFSS  03.0
05DA:  GOTO   5E2
05DB:  MOVF   53,W
05DC:  SUBWF  77,F
05DD:  BTFSS  03.0
05DE:  DECF   7A,F
05DF:  MOVF   54,W
05E0:  SUBWF  7A,F
05E1:  BSF    03.0
05E2:  RLF    78,F
05E3:  RLF    79,F
05E4:  DECFSZ 55,F
05E5:  GOTO   5CE
05E6:  RETURN
*
06BE:  MOVLW  10
06BF:  MOVWF  55
06C0:  CLRF   77
06C1:  CLRF   7A
06C2:  RRF    52,F
06C3:  RRF    51,F
06C4:  BTFSS  03.0
06C5:  GOTO   6CC
06C6:  MOVF   53,W
06C7:  ADDWF  77,F
06C8:  BTFSC  03.0
06C9:  INCF   7A,F
06CA:  MOVF   54,W
06CB:  ADDWF  7A,F
06CC:  RRF    7A,F
06CD:  RRF    77,F
06CE:  RRF    79,F
06CF:  RRF    78,F
06D0:  DECFSZ 55,F
06D1:  GOTO   6C2
06D2:  BSF    0A.3
06D3:  BCF    0A.4
06D4:  GOTO   5AC (RETURN)
*
0800:  MOVLW  8E
0801:  MOVWF  77
0802:  MOVF   4E,W
0803:  MOVWF  78
0804:  MOVF   4D,W
0805:  MOVWF  79
0806:  CLRF   7A
0807:  MOVF   78,F
0808:  BTFSS  03.2
0809:  GOTO   014
080A:  MOVF   79,W
080B:  MOVWF  78
080C:  CLRF   79
080D:  MOVLW  08
080E:  SUBWF  77,F
080F:  MOVF   78,F
0810:  BTFSS  03.2
0811:  GOTO   014
0812:  CLRF   77
0813:  GOTO   01C
0814:  BCF    03.0
0815:  BTFSC  78.7
0816:  GOTO   01B
0817:  RLF    79,F
0818:  RLF    78,F
0819:  DECF   77,F
081A:  GOTO   014
081B:  BCF    78.7
081C:  RETURN
081D:  MOVF   4D,W
081E:  BTFSC  03.2
081F:  GOTO   08D
0820:  MOVWF  55
0821:  MOVF   51,W
0822:  BTFSC  03.2
0823:  GOTO   08D
0824:  ADDWF  55,F
0825:  BTFSC  03.0
0826:  GOTO   02E
0827:  MOVLW  7F
0828:  SUBWF  55,F
0829:  BTFSS  03.0
082A:  GOTO   08D
082B:  BTFSC  03.2
082C:  GOTO   08D
082D:  GOTO   032
082E:  MOVLW  81
082F:  ADDWF  55,F
0830:  BTFSC  03.0
0831:  GOTO   08D
0832:  MOVF   55,W
0833:  MOVWF  77
0834:  CLRF   78
0835:  CLRF   79
0836:  CLRF   7A
0837:  MOVF   4E,W
0838:  MOVWF  59
0839:  BSF    59.7
083A:  MOVF   4F,W
083B:  MOVWF  58
083C:  MOVF   50,W
083D:  MOVWF  57
083E:  MOVLW  18
083F:  MOVWF  55
0840:  CLRF   56
0841:  BTFSS  57.0
0842:  GOTO   05B
0843:  MOVF   54,W
0844:  ADDWF  7A,F
0845:  BTFSS  03.0
0846:  GOTO   04D
0847:  INCF   79,F
0848:  BTFSS  03.2
0849:  GOTO   04D
084A:  INCF   78,F
084B:  BTFSC  03.2
084C:  BSF    56.7
084D:  MOVF   53,W
084E:  ADDWF  79,F
084F:  BTFSS  03.0
0850:  GOTO   054
0851:  INCF   78,F
0852:  BTFSC  03.2
0853:  BSF    56.7
0854:  MOVF   52,W
0855:  MOVWF  4F
0856:  BSF    4F.7
0857:  MOVF   4F,W
0858:  ADDWF  78,F
0859:  BTFSC  03.0
085A:  BSF    56.7
085B:  RLF    56,F
085C:  RRF    78,F
085D:  RRF    79,F
085E:  RRF    7A,F
085F:  RRF    59,F
0860:  RRF    58,F
0861:  RRF    57,F
0862:  BCF    03.0
0863:  DECFSZ 55,F
0864:  GOTO   040
0865:  MOVLW  01
0866:  ADDWF  77,F
0867:  BTFSC  03.0
0868:  GOTO   08D
0869:  BTFSC  78.7
086A:  GOTO   072
086B:  RLF    59,F
086C:  RLF    7A,F
086D:  RLF    79,F
086E:  RLF    78,F
086F:  DECF   77,F
0870:  BTFSC  03.2
0871:  GOTO   08D
0872:  BTFSS  59.7
0873:  GOTO   083
0874:  INCF   7A,F
0875:  BTFSS  03.2
0876:  GOTO   083
0877:  INCF   79,F
0878:  BTFSS  03.2
0879:  GOTO   083
087A:  INCF   78,F
087B:  BTFSS  03.2
087C:  GOTO   083
087D:  RRF    78,F
087E:  RRF    79,F
087F:  RRF    7A,F
0880:  INCF   77,F
0881:  BTFSC  03.2
0882:  GOTO   08D
0883:  MOVF   4E,W
0884:  MOVWF  56
0885:  MOVF   52,W
0886:  XORWF  56,F
0887:  BTFSS  56.7
0888:  GOTO   08B
0889:  BSF    78.7
088A:  GOTO   091
088B:  BCF    78.7
088C:  GOTO   091
088D:  CLRF   77
088E:  CLRF   78
088F:  CLRF   79
0890:  CLRF   7A
0891:  RETURN
0892:  MOVLW  8E
0893:  MOVWF  77
0894:  MOVF   4D,W
0895:  SUBWF  77,F
0896:  MOVF   4E,W
0897:  MOVWF  79
0898:  MOVF   4F,W
0899:  MOVWF  78
089A:  BSF    79.7
089B:  MOVF   77,F
089C:  BTFSC  03.2
089D:  GOTO   0A9
089E:  BCF    03.0
089F:  MOVF   79,F
08A0:  BTFSS  03.2
08A1:  GOTO   0A5
08A2:  MOVF   78,F
08A3:  BTFSC  03.2
08A4:  GOTO   0A9
08A5:  RRF    79,F
08A6:  RRF    78,F
08A7:  DECFSZ 77,F
08A8:  GOTO   09E
08A9:  BTFSS  4E.7
08AA:  GOTO   0B0
08AB:  COMF   78,F
08AC:  COMF   79,F
08AD:  INCF   78,F
08AE:  BTFSC  03.2
08AF:  INCF   79,F
08B0:  RETURN
....................  
.................... #list 
....................  
....................  
.................... #FUSES PUT                      //Power Up Timer 
.................... #FUSES BROWNOUT                 //Reset when brownout detected 
.................... #FUSES NOLVP                    //No low voltage prgming, B3(PIC16) or B5(PIC18) used for I/O 
.................... #FUSES NOCPD                    //No EE protection 
.................... #FUSES WRT_1000                 //Program Memory Write Protected from 0 to 0x0FFF 
.................... #FUSES NOPROTECT                //Code not protected from reading 
....................  
.................... #use FIXED_IO(D_outputs=PIN_D7,PIN_D6,PIN_D5,PIN_D4,PIN_D3,PIN_D2,PIN_D1,PIN_D0) 
.................... #use FIXED_IO(A_outputs=PIN_A5) 
....................  
.................... #use delay(crystal=4MHz) 
....................  
.................... #define S1   PIN_B0 
.................... #define S2   PIN_B1 
.................... #define S3   PIN_B2 
.................... #define S4   PIN_B3 
....................  
.................... #define DU   PIN_B4 
.................... #define DD   PIN_B5 
.................... #define DC   PIN_B6 
.................... #define DM   PIN_B7 
....................  
.................... #define BUZZER   PIN_A5 
....................  
....................  
.................... int16 V_INTERVALO_INCREMENTO = 1000; 
.................... int16 contador = 0; 
.................... int16 unidade; 
.................... int16 dezena; 
.................... int16 centena; 
.................... int16 milhar; 
....................  
.................... int16 fase = 0; 
.................... int16 inicio; 
.................... int16 velocidade; 
.................... int1 unidade_ativo = 0, dezena_ativo = 0, centena_ativo = 0, milhar_ativo = 0; 
.................... int1 unidade_ativode = 0, dezena_ativode = 0, centena_ativode = 0, 
....................   milhar_ativode = 0; 
.................... int16 contde = 200; 
.................... int1 comeca = 0; 
....................  
.................... int1 para_1 = 0, para_2 = 0, para_3 = 0; 
....................  
.................... int16 unidade_ativodecont = contde, dezena_ativodecont = contde, 
....................   centena_ativodecont = contde, milhar_ativodecont = contde; 
....................  
.................... int16 contador_tela_inicial = 0; 
.................... int16 finalfase = 100; 
.................... int16 vez_contador_tela_inicial = 0; 
....................  
.................... const int8 listadisplay4[] = { 
....................   0x08, 
....................   0x00, 
....................   0x00, 
....................   0x01, 
....................   0x02, 
....................   0x04, 
....................   0b01001000, 
....................   0b01000000, 
....................   0b01000000, 
....................   0b01000001, 
....................   0b01000010, 
....................   0b01000100 
.................... }; 
....................  
.................... const int8 listadisplay3[] = { 
....................   0x00, 
....................   0x08, 
....................   0x01, 
....................   0x00, 
....................   0x00, 
....................   0x00, 
....................   0x00, 
....................   0b01001000, 
....................   0b01000001, 
....................   0x00, 
....................   0x00, 
....................   0x00 
.................... }; 
....................  
.................... const int8 listadisplay2[] = { 
....................   0x00, 
....................   0x01, 
....................   0x08, 
....................   0x00, 
....................   0x00, 
....................   0x00, 
....................   0x00, 
....................   0b01000001, 
....................   0b01001000, 
....................   0x00, 
....................   0x00, 
....................   0x00 
.................... }; 
....................  
.................... const int8 listadisplay1[] = { 
....................   0x01, 
....................   0x00, 
....................   0x00, 
....................   0x08, 
....................   0x10, 
....................   0x20, 
....................   0b01000001, 
....................   0b01000000, 
....................   0b01000000, 
....................   0b01001000, 
....................   0b01010000, 
....................   0b01100000 
.................... }; 
....................  
.................... const int8 u1 [] = {4,3,2,1,0,3,2,1,0,3,2,1,0,3,2,1,0,5,4,3,2,1,0,5,4,3,2,1,0,8, 
.................... 7,6,5,4,3,2,1,0,8,7,6,5,4,3,2,1,0,5,4,3 ,2 ,1 ,0 ,10,11,11,12,12}; 
.................... const int8 d1 [] = {3,2,1,0,0,2,1,0,6,5,4,3,2,1,0,4,3,2,1,0,2,1,0,2,1,0,3,2,1,0, 
.................... 2,1,0,1,0,1,0,4,3,2,1,0,2,1,0,5,4,3,2,1 ,0 ,10,10,10,11,11,12,12}; 
.................... const int8 c1 [] = {3,2,1,0,0,2,1,0,6,5,4,3,2,1,0,2,1,0,5,4,3,2,1,0,2,1,0,2,1,0, 
.................... 7,6,5,4,3,2,1,0,5,4,3,2,1,0,2,1,0,1,0,10,10,10,10,10,11,11,12,12}; 
.................... const int8 m1 [] = {2,1,0,1,0,1,0,1,0,9,8,7,6,5,4,3,2,1,0,5,4,3,2,1,0,3,2,1,0,3, 
.................... 2,1,0,2,1,0,4,3,2,1,0,8,7,6,5,4,3,2,1,0 ,10,10,10,10,11,11,12,12}; 
....................  
.................... const int8 u2 [] = {1,0,5,4,3,2,1,0,2,1,0,1,0,5,4,3,2,1,0,2,1,0,1,0,2,1,0,1,0,1, 
.................... 0,1,0,1,0,8,7,6,5,4,3,2,1,0,7,6,5,4,3,2,1,0,10,10,10,10,11,11,11,12,12}; 
.................... const int8 d2 [] = {2,1,0,3,2,1,0,2,1,0,1,0,1,0,3,2,1,0,2,1,0,1,0,2,1,0,1,0,1,0, 
.................... 1,0,3,2,1,0,8,7,6,5,4,2,1,0,6,5,4,3,2,1,0,1,0 ,10,10,10,11,11,11,12,12}; 
.................... const int8 c2 [] = {3,2,1,0,1,0,3,2,1,0,1,0,2,1,0,1,0,3,2,1,0,1,0,3,2,1,0,1,0,7, 
.................... 6,5,4,3,2,1,0,1,0,1,0,2,1,0,5,4,3,2,1,0,3,2,1 ,0 ,10,10,11,11,11,12,12}; 
.................... const int8 m2 [] = {4,3,2,1,0,5,4,3,2,1,0,4,3,2,1,0,5,4,3,2,1,0,3,2,1,0,1,0,1,0, 
.................... 7,6,5,4,3,2,1,0,1,0,1,0,1,0,4,3,2,1,0,5,4,3,2 ,1 ,0 ,10,11,11,11,12,12}; 
....................  
.................... const int8 u3 [] = {2,1,0,2,1,0,2,1,0,2,1,0,3,2,1,0,3,2,1,0,2,1,0,1,0,1,0,1,0,1, 
.................... 0,3,2,1,0,1,0,4,3,2,1,0,6,5,4,3,2,1,0,2,1,0,2,1,0,5,4,3,2,1,0,2,1,0,2,1,0,2,1,0, 
.................... 2,1,0,4,3,2,1,0,2,1,0,5,4,3,2,1,0,2,1,0,1,0,1,0,1 ,0 ,1 ,0 ,1 ,0 ,11,11,11,12,12}; 
.................... const int8 d3 [] = {2,1,0,2,1,0,2,1,0,2,1,0,3,2,1,0,3,2,1,0,4,3,2,1,0,3,2,1,0,3, 
.................... 2,1,0,1,0,1,0,2,1,0,1,0,1,0,4,3,2,1,0,2,1,0,5,4,3,2,1,0,2,1,0,2,1,0,2,1,0,2,1,0, 
.................... 2,1,0,3,2,1,0,1,0,2,1,0,3,2,1,0,2,1,0,2,1,0,1,0,10,10,10,10,10,10,11,11,11,12,12}; 
.................... const int8 c3 [] = {2,1,0,2,1,0,2,1,0,2,1,0,3,2,1,0,6,5,4,3,2,1,0,3,2,1,0,1,0,1, 
.................... 0,1,0,2,1,0,1,0,1,0,3,2,1,0,1,0,2,1,0,5,4,3,2,1,0,2,1,0,2,1,0,2,1,0,2,1,0,2,1,0, 
.................... 2,1,0,2,1,0,3,2,1,0,2,1,0,1,0,2,1,0,3,2,1,0,1,0,1 ,0 ,10,10,10,10,11,11,11,12,12}; 
.................... const int8 m3 [] = {2,1,0,2,1,0,2,1,0,2,1,0,3,2,1,0,3,2,1,0,2,1,0,1,0,1,0,3,2,1, 
.................... 0,1,0,2,1,0,1,0,7,6,5,4,3,2,1,0,5,4,3,2,1,0,2,1,0,2,1,0,2,1,0,2,1,0,2,1,0,2,1,0, 
.................... 2,1,0,1,0,5,4,3,2,1,0,2,1,0,2,1,0,4,3,2,1,0,1,0,1 ,0 ,1 ,0 ,10,10,11,11,11,12,12}; 
....................  
.................... const int8 u4 [] = {6,5,4,3,2,1,0,1,0,7,6,5,4,3,2,1,0,3,2,1,0,2,1,0,3,2,1,0,7,6, 
.................... 5,4,3,2,1,0,7,6,5,4,3,2,1,0,5,4,3,2,1,0,10,10,11,11,12,12}; 
.................... const int8 d4 [] = {5,4,3,2,1,0,1,0,1,0,5,4,3,2,1,0,3,2,1,0,4,3,2,1,0,3,2,1,0,3, 
.................... 2,1,0,1,0,1,0,1,0,3,2,1,0,6,5,4,3,2,1,0,10,10,11,11,12,12}; 
.................... const int8 c4 [] = {4,3,2,1,0,5,4,3,2,1,0,1,0,1,0,3,2,1,0,6,5,4,3,2,1,0,3,2,1,0, 
.................... 1,0,1,0,3,2,1,0,1,0,1,0,7,6,5,4,3,2,1,0,10,10,11,11,12,12}; 
.................... const int8 m4 [] = {3,2,1,0,7,6,5,4,3,2,1,0,1,0,3,2,1,0,8,7,6,5,4,3,2,1,0,3,2,1, 
.................... 0,9,8,7,6,5,4,3,2,1,0,8,7,6,5,4,3,2,1,0,10,10,11,11,12,12}; 
....................  
.................... const int8 display_numbers[] = { 
....................   0x3F, 
....................   0x06, 
....................   0x5B, 
....................   0x4F, 
....................   0x66, 
....................   0x6D, 
....................   0x7D, 
....................   0x07, 
....................   0x7F, 
....................   0x6F, 
....................   0b00001000, 
....................   0b01001000, 
....................   0b01001001 
.................... }; 
....................  
.................... int1 pasou_fase_1 = 0; 
.................... int1 pasou_fase_2 = 0; 
.................... int1 pasou_fase_3 = 0; 
.................... int1 pasou_fase_4 = 0; 
....................  
.................... int16 contador_ms = 0; // Contador de milissegundos para controle de intervalo 
.................... void verificaerro0(); 
.................... void verificaerro9(); 
.................... void jogo(); 
.................... void tela_inicial(); 
.................... void escolha_de_fase(); 
.................... void fase1(); 
.................... void fase4(); 
.................... void fase3(); 
.................... void fase2(); 
.................... void falha(); 
.................... void delay(int8 n); 
.................... void verificabotao(); 
....................  
.................... #INT_TIMER0 
.................... void TIMER0_isr(void) { 
....................   set_timer0(get_timer0() + 131); // Ajuste do temporizador para 1ms 
*
052F:  MOVF   01,W
0530:  ADDLW  83
0531:  MOVWF  5A
0532:  MOVF   5A,W
0533:  MOVWF  01
....................  
....................   contador_ms++; // Incrementa o contador de milissegundos 
0534:  INCF   4B,F
0535:  BTFSC  03.2
0536:  INCF   4C,F
....................  
....................   if (contador_ms >= V_INTERVALO_INCREMENTO) { // Se atingir o intervalo de 1 segundo 
0537:  MOVF   28,W
0538:  SUBWF  4C,W
0539:  BTFSS  03.0
053A:  GOTO   599
053B:  BTFSS  03.2
053C:  GOTO   541
053D:  MOVF   27,W
053E:  SUBWF  4B,W
053F:  BTFSS  03.0
0540:  GOTO   599
....................     contador_ms = 0; // Reseta o contador de milissegundos 
0541:  CLRF   4C
0542:  CLRF   4B
....................  
....................     para_3 = 0; 
0543:  BCF    3C.3
....................  
....................     contador_tela_inicial++; 
0544:  INCF   45,F
0545:  BTFSC  03.2
0546:  INCF   46,F
....................  
....................     if (inicio) { 
0547:  MOVF   35,W
0548:  IORWF  36,W
0549:  BTFSC  03.2
054A:  GOTO   54F
....................       inicio--; 
054B:  MOVF   35,W
054C:  BTFSC  03.2
054D:  DECF   36,F
054E:  DECF   35,F
....................     } 
....................  
....................     if (fase && comeca) { 
054F:  MOVF   33,W
0550:  IORWF  34,W
0551:  BTFSC  03.2
0552:  GOTO   590
0553:  BTFSS  3C.0
0554:  GOTO   590
....................       contador++; 
0555:  INCF   29,F
0556:  BTFSC  03.2
0557:  INCF   2A,F
....................       verificaerro9(); 
....................       verificaerro0(); 
....................       unidade_ativo = 0; 
*
058C:  BCF    39.0
....................       dezena_ativo = 0; 
058D:  BCF    39.1
....................       centena_ativo = 0; 
058E:  BCF    39.2
....................       milhar_ativo = 0; 
058F:  BCF    39.3
....................  
....................     } 
....................  
....................     if (contador_tela_inicial > 5) { // Se o contador atingir 0, reseta para 9999 
0590:  MOVF   46,F
0591:  BTFSS  03.2
0592:  GOTO   597
0593:  MOVF   45,W
0594:  SUBLW  05
0595:  BTFSC  03.0
0596:  GOTO   599
....................       contador_tela_inicial = 0; 
0597:  CLRF   46
0598:  CLRF   45
....................     } 
....................   } 
0599:  BCF    0B.2
059A:  BCF    0A.3
059B:  BCF    0A.4
059C:  GOTO   01B
.................... } 
....................  
.................... void update_display(); 
....................  
....................  
.................... void main() { 
*
0D07:  MOVF   03,W
0D08:  ANDLW  1F
0D09:  MOVWF  03
0D0A:  MOVLW  03
0D0B:  MOVWF  28
0D0C:  MOVLW  E8
0D0D:  MOVWF  27
0D0E:  CLRF   2A
0D0F:  CLRF   29
0D10:  CLRF   34
0D11:  CLRF   33
0D12:  BCF    39.0
0D13:  BCF    39.1
0D14:  BCF    39.2
0D15:  BCF    39.3
0D16:  BCF    39.4
0D17:  BCF    39.5
0D18:  BCF    39.6
0D19:  BCF    39.7
0D1A:  CLRF   3B
0D1B:  MOVLW  C8
0D1C:  MOVWF  3A
0D1D:  BCF    3C.0
0D1E:  BCF    3C.1
0D1F:  BCF    3C.2
0D20:  BCF    3C.3
0D21:  MOVF   3B,W
0D22:  MOVWF  3E
0D23:  MOVF   3A,W
0D24:  MOVWF  3D
0D25:  MOVF   3B,W
0D26:  MOVWF  40
0D27:  MOVF   3A,W
0D28:  MOVWF  3F
0D29:  MOVF   3B,W
0D2A:  MOVWF  42
0D2B:  MOVF   3A,W
0D2C:  MOVWF  41
0D2D:  MOVF   3B,W
0D2E:  MOVWF  44
0D2F:  MOVF   3A,W
0D30:  MOVWF  43
0D31:  CLRF   46
0D32:  CLRF   45
0D33:  CLRF   48
0D34:  MOVLW  64
0D35:  MOVWF  47
0D36:  CLRF   4A
0D37:  CLRF   49
0D38:  BCF    3C.4
0D39:  BCF    3C.5
0D3A:  BCF    3C.6
0D3B:  BCF    3C.7
0D3C:  CLRF   4C
0D3D:  CLRF   4B
0D3E:  BSF    03.5
0D3F:  BSF    1F.0
0D40:  BSF    1F.1
0D41:  BSF    1F.2
0D42:  BCF    1F.3
0D43:  MOVLW  07
0D44:  MOVWF  1C
0D45:  BCF    03.7
....................   setup_timer_0(RTCC_INTERNAL | RTCC_DIV_8 | RTCC_8_BIT); // Configuração do timer para interrupção a cada 1ms 
0D46:  MOVF   01,W
0D47:  ANDLW  C0
0D48:  IORLW  02
0D49:  MOVWF  01
....................   enable_interrupts(INT_TIMER0); 
0D4A:  BCF    03.5
0D4B:  BSF    0B.5
....................   enable_interrupts(GLOBAL); // Habilita interrupções globais 
0D4C:  MOVLW  C0
0D4D:  IORWF  0B,F
....................  
....................   output_d(0); // Limpa os displays 
0D4E:  BSF    03.5
0D4F:  CLRF   08
0D50:  BCF    03.5
0D51:  CLRF   08
....................  
....................   fase = 0; 
0D52:  CLRF   34
0D53:  CLRF   33
....................   while (TRUE) { 
....................  
....................     if (!fase) { 
0D54:  MOVF   33,W
0D55:  IORWF  34,W
0D56:  BTFSS  03.2
0D57:  GOTO   6C1
....................       V_INTERVALO_INCREMENTO = V_INTERVALO_INCREMENTO / (3 * (pasou_fase_1 + pasou_fase_2 + pasou_fase_3 + pasou_fase_4) + 5); 
0D58:  MOVLW  00
0D59:  BTFSC  3C.4
0D5A:  MOVLW  01
0D5B:  MOVWF  4E
0D5C:  MOVLW  00
0D5D:  BTFSC  3C.5
0D5E:  MOVLW  01
0D5F:  ADDWF  4E,W
0D60:  MOVWF  4F
0D61:  MOVLW  00
0D62:  BTFSC  3C.6
0D63:  MOVLW  01
0D64:  ADDWF  4F,W
0D65:  MOVWF  50
0D66:  MOVLW  00
0D67:  BTFSC  3C.7
0D68:  MOVLW  01
0D69:  ADDWF  50,W
0D6A:  MOVWF  4D
0D6B:  MOVLW  03
0D6C:  MOVWF  51
0D6D:  MOVF   4D,W
0D6E:  MOVWF  52
0D6F:  BCF    0A.3
0D70:  CALL   59D
0D71:  BSF    0A.3
0D72:  MOVLW  05
0D73:  ADDWF  78,W
0D74:  MOVWF  4D
0D75:  MOVF   28,W
0D76:  MOVWF  52
0D77:  MOVF   27,W
0D78:  MOVWF  51
0D79:  CLRF   54
0D7A:  MOVF   4D,W
0D7B:  MOVWF  53
0D7C:  BCF    0A.3
0D7D:  CALL   5C2
0D7E:  BSF    0A.3
0D7F:  MOVF   79,W
0D80:  MOVWF  28
0D81:  MOVF   78,W
0D82:  MOVWF  27
....................       tela_inicial(); 
0D83:  BCF    0A.3
0D84:  GOTO   5EF
0D85:  BSF    0A.3
....................       V_INTERVALO_INCREMENTO = V_INTERVALO_INCREMENTO * (3 * (pasou_fase_1 + pasou_fase_2 + pasou_fase_3 + pasou_fase_4) + 5); 
0D86:  MOVLW  00
0D87:  BTFSC  3C.4
0D88:  MOVLW  01
0D89:  MOVWF  4E
0D8A:  MOVLW  00
0D8B:  BTFSC  3C.5
0D8C:  MOVLW  01
0D8D:  ADDWF  4E,W
0D8E:  MOVWF  4F
0D8F:  MOVLW  00
0D90:  BTFSC  3C.6
0D91:  MOVLW  01
0D92:  ADDWF  4F,W
0D93:  MOVWF  50
0D94:  MOVLW  00
0D95:  BTFSC  3C.7
0D96:  MOVLW  01
0D97:  ADDWF  50,W
0D98:  MOVWF  4D
0D99:  MOVLW  03
0D9A:  MOVWF  51
0D9B:  MOVF   4D,W
0D9C:  MOVWF  52
0D9D:  BCF    0A.3
0D9E:  CALL   59D
0D9F:  BSF    0A.3
0DA0:  MOVLW  05
0DA1:  ADDWF  78,W
0DA2:  MOVWF  4D
0DA3:  MOVF   28,W
0DA4:  MOVWF  52
0DA5:  MOVF   27,W
0DA6:  MOVWF  51
0DA7:  CLRF   54
0DA8:  MOVF   4D,W
0DA9:  MOVWF  53
0DAA:  BCF    0A.3
0DAB:  GOTO   6BE
0DAC:  BSF    0A.3
0DAD:  MOVF   79,W
0DAE:  MOVWF  28
0DAF:  MOVF   78,W
0DB0:  MOVWF  27
....................       escolha_de_fase(); 
0DB1:  BCF    0A.3
0DB2:  GOTO   72A
0DB3:  BSF    0A.3
....................  
....................       if (fase == 1) { 
0DB4:  DECFSZ 33,W
0DB5:  GOTO   5ED
0DB6:  MOVF   34,F
0DB7:  BTFSS  03.2
0DB8:  GOTO   5ED
....................         contador = 0; 
0DB9:  CLRF   2A
0DBA:  CLRF   29
....................         comeca = 1; 
0DBB:  BSF    3C.0
....................         velocidade = V_INTERVALO_INCREMENTO; 
0DBC:  MOVF   28,W
0DBD:  MOVWF  38
0DBE:  MOVF   27,W
0DBF:  MOVWF  37
....................         para_1 = 0; 
0DC0:  BCF    3C.1
....................         para_2 = 0; 
0DC1:  BCF    3C.2
....................         while (fase) { 
0DC2:  MOVF   33,W
0DC3:  IORWF  34,W
0DC4:  BTFSC  03.2
0DC5:  GOTO   5C8
....................           fase1(); 
0DC6:  GOTO   0B1
0DC7:  GOTO   5C2
....................         } 
....................         comeca = 0; 
0DC8:  BCF    3C.0
....................  
....................         if (contador < finalfase) { 
0DC9:  MOVF   2A,W
0DCA:  SUBWF  48,W
0DCB:  BTFSS  03.0
0DCC:  GOTO   5D6
0DCD:  BTFSS  03.2
0DCE:  GOTO   5D3
0DCF:  MOVF   47,W
0DD0:  SUBWF  29,W
0DD1:  BTFSC  03.0
0DD2:  GOTO   5D6
....................           falha(); 
0DD3:  CALL   1B1
....................           contador = 0; 
0DD4:  CLRF   2A
0DD5:  CLRF   29
....................         } 
....................  
....................         if (contador >= finalfase + 4) 
0DD6:  MOVLW  04
0DD7:  ADDWF  47,W
0DD8:  MOVWF  78
0DD9:  MOVF   48,W
0DDA:  MOVWF  7A
0DDB:  BTFSC  03.0
0DDC:  INCF   7A,F
0DDD:  MOVF   7A,W
0DDE:  SUBWF  2A,W
0DDF:  BTFSS  03.0
0DE0:  GOTO   5E7
0DE1:  BTFSS  03.2
0DE2:  GOTO   5E6
0DE3:  MOVF   78,W
0DE4:  SUBWF  29,W
0DE5:  BTFSC  03.0
....................           pasou_fase_1 = 1; 
0DE6:  BSF    3C.4
....................  
....................         V_INTERVALO_INCREMENTO = velocidade; 
0DE7:  MOVF   38,W
0DE8:  MOVWF  28
0DE9:  MOVF   37,W
0DEA:  MOVWF  27
....................         fase = 0; 
0DEB:  CLRF   34
0DEC:  CLRF   33
....................  
....................       } 
....................        
....................       if (fase == 2) { 
0DED:  MOVF   33,W
0DEE:  SUBLW  02
0DEF:  BTFSS  03.2
0DF0:  GOTO   628
0DF1:  MOVF   34,F
0DF2:  BTFSS  03.2
0DF3:  GOTO   628
....................         contador = 0; 
0DF4:  CLRF   2A
0DF5:  CLRF   29
....................         comeca = 1; 
0DF6:  BSF    3C.0
....................         velocidade = V_INTERVALO_INCREMENTO; 
0DF7:  MOVF   28,W
0DF8:  MOVWF  38
0DF9:  MOVF   27,W
0DFA:  MOVWF  37
....................         para_1 = 0; 
0DFB:  BCF    3C.1
....................         para_2 = 0; 
0DFC:  BCF    3C.2
....................         while (fase) { 
0DFD:  MOVF   33,W
0DFE:  IORWF  34,W
0DFF:  BTFSC  03.2
0E00:  GOTO   603
....................           fase2(); 
0E01:  GOTO   240
0E02:  GOTO   5FD
....................         } 
....................         comeca = 0; 
0E03:  BCF    3C.0
....................  
....................         if (contador < finalfase) { 
0E04:  MOVF   2A,W
0E05:  SUBWF  48,W
0E06:  BTFSS  03.0
0E07:  GOTO   611
0E08:  BTFSS  03.2
0E09:  GOTO   60E
0E0A:  MOVF   47,W
0E0B:  SUBWF  29,W
0E0C:  BTFSC  03.0
0E0D:  GOTO   611
....................           falha(); 
0E0E:  CALL   1B1
....................           contador = 0; 
0E0F:  CLRF   2A
0E10:  CLRF   29
....................         } 
....................         if (contador >= finalfase + 4) 
0E11:  MOVLW  04
0E12:  ADDWF  47,W
0E13:  MOVWF  78
0E14:  MOVF   48,W
0E15:  MOVWF  7A
0E16:  BTFSC  03.0
0E17:  INCF   7A,F
0E18:  MOVF   7A,W
0E19:  SUBWF  2A,W
0E1A:  BTFSS  03.0
0E1B:  GOTO   622
0E1C:  BTFSS  03.2
0E1D:  GOTO   621
0E1E:  MOVF   78,W
0E1F:  SUBWF  29,W
0E20:  BTFSC  03.0
....................           pasou_fase_2 = 1; 
0E21:  BSF    3C.5
....................  
....................         V_INTERVALO_INCREMENTO = velocidade; 
0E22:  MOVF   38,W
0E23:  MOVWF  28
0E24:  MOVF   37,W
0E25:  MOVWF  27
....................         fase = 0; 
0E26:  CLRF   34
0E27:  CLRF   33
....................       } 
....................        
....................       if (fase == 3) { 
0E28:  MOVF   33,W
0E29:  SUBLW  03
0E2A:  BTFSS  03.2
0E2B:  GOTO   663
0E2C:  MOVF   34,F
0E2D:  BTFSS  03.2
0E2E:  GOTO   663
....................         contador = 0; 
0E2F:  CLRF   2A
0E30:  CLRF   29
....................         comeca = 1; 
0E31:  BSF    3C.0
....................         velocidade = V_INTERVALO_INCREMENTO; 
0E32:  MOVF   28,W
0E33:  MOVWF  38
0E34:  MOVF   27,W
0E35:  MOVWF  37
....................         para_1 = 0; 
0E36:  BCF    3C.1
....................         para_2 = 0; 
0E37:  BCF    3C.2
....................         while (fase) { 
0E38:  MOVF   33,W
0E39:  IORWF  34,W
0E3A:  BTFSC  03.2
0E3B:  GOTO   63E
....................           fase3(); 
0E3C:  GOTO   3A5
0E3D:  GOTO   638
....................         } 
....................         comeca = 0; 
0E3E:  BCF    3C.0
....................  
....................         if (contador < finalfase) { 
0E3F:  MOVF   2A,W
0E40:  SUBWF  48,W
0E41:  BTFSS  03.0
0E42:  GOTO   64C
0E43:  BTFSS  03.2
0E44:  GOTO   649
0E45:  MOVF   47,W
0E46:  SUBWF  29,W
0E47:  BTFSC  03.0
0E48:  GOTO   64C
....................           falha(); 
0E49:  CALL   1B1
....................           contador = 0; 
0E4A:  CLRF   2A
0E4B:  CLRF   29
....................         } 
....................         if (contador >= finalfase + 4) 
0E4C:  MOVLW  04
0E4D:  ADDWF  47,W
0E4E:  MOVWF  78
0E4F:  MOVF   48,W
0E50:  MOVWF  7A
0E51:  BTFSC  03.0
0E52:  INCF   7A,F
0E53:  MOVF   7A,W
0E54:  SUBWF  2A,W
0E55:  BTFSS  03.0
0E56:  GOTO   65D
0E57:  BTFSS  03.2
0E58:  GOTO   65C
0E59:  MOVF   78,W
0E5A:  SUBWF  29,W
0E5B:  BTFSC  03.0
....................           pasou_fase_3 = 1; 
0E5C:  BSF    3C.6
....................  
....................         V_INTERVALO_INCREMENTO = velocidade; 
0E5D:  MOVF   38,W
0E5E:  MOVWF  28
0E5F:  MOVF   37,W
0E60:  MOVWF  27
....................         fase = 0; 
0E61:  CLRF   34
0E62:  CLRF   33
....................  
....................       } 
....................        
....................       if (fase == 4) { 
0E63:  MOVF   33,W
0E64:  SUBLW  04
0E65:  BTFSS  03.2
0E66:  GOTO   6C1
0E67:  MOVF   34,F
0E68:  BTFSS  03.2
0E69:  GOTO   6C1
....................         contador = 0; 
0E6A:  CLRF   2A
0E6B:  CLRF   29
....................         comeca = 1; 
0E6C:  BSF    3C.0
....................         velocidade = V_INTERVALO_INCREMENTO; 
0E6D:  MOVF   28,W
0E6E:  MOVWF  38
0E6F:  MOVF   27,W
0E70:  MOVWF  37
....................         para_1 = 0; 
0E71:  BCF    3C.1
....................         para_2 = 0; 
0E72:  BCF    3C.2
....................         V_INTERVALO_INCREMENTO = V_INTERVALO_INCREMENTO * 0.60; 
0E73:  MOVF   28,W
0E74:  MOVWF  4E
0E75:  MOVF   27,W
0E76:  MOVWF  4D
0E77:  CALL   000
0E78:  MOVF   7A,W
0E79:  MOVWF  50
0E7A:  MOVF   79,W
0E7B:  MOVWF  4F
0E7C:  MOVF   78,W
0E7D:  MOVWF  4E
0E7E:  MOVF   77,W
0E7F:  MOVWF  4D
0E80:  MOVLW  9A
0E81:  MOVWF  54
0E82:  MOVLW  99
0E83:  MOVWF  53
0E84:  MOVLW  19
0E85:  MOVWF  52
0E86:  MOVLW  7E
0E87:  MOVWF  51
0E88:  CALL   01D
0E89:  MOVF   7A,W
0E8A:  MOVWF  50
0E8B:  MOVF   79,W
0E8C:  MOVWF  4F
0E8D:  MOVF   78,W
0E8E:  MOVWF  4E
0E8F:  MOVF   77,W
0E90:  MOVWF  4D
0E91:  CALL   092
0E92:  MOVF   79,W
0E93:  MOVWF  28
0E94:  MOVF   78,W
0E95:  MOVWF  27
....................         while (fase) { 
0E96:  MOVF   33,W
0E97:  IORWF  34,W
0E98:  BTFSC  03.2
0E99:  GOTO   69C
....................           fase4(); 
0E9A:  GOTO   461
0E9B:  GOTO   696
....................         } 
....................         comeca = 0; 
0E9C:  BCF    3C.0
....................  
....................         if (contador < finalfase) { 
0E9D:  MOVF   2A,W
0E9E:  SUBWF  48,W
0E9F:  BTFSS  03.0
0EA0:  GOTO   6AA
0EA1:  BTFSS  03.2
0EA2:  GOTO   6A7
0EA3:  MOVF   47,W
0EA4:  SUBWF  29,W
0EA5:  BTFSC  03.0
0EA6:  GOTO   6AA
....................           falha(); 
0EA7:  CALL   1B1
....................           contador = 0; 
0EA8:  CLRF   2A
0EA9:  CLRF   29
....................         } 
....................         if (contador >= finalfase + 4) 
0EAA:  MOVLW  04
0EAB:  ADDWF  47,W
0EAC:  MOVWF  78
0EAD:  MOVF   48,W
0EAE:  MOVWF  7A
0EAF:  BTFSC  03.0
0EB0:  INCF   7A,F
0EB1:  MOVF   7A,W
0EB2:  SUBWF  2A,W
0EB3:  BTFSS  03.0
0EB4:  GOTO   6BB
0EB5:  BTFSS  03.2
0EB6:  GOTO   6BA
0EB7:  MOVF   78,W
0EB8:  SUBWF  29,W
0EB9:  BTFSC  03.0
....................           pasou_fase_4 = 1; 
0EBA:  BSF    3C.7
....................  
....................         V_INTERVALO_INCREMENTO = velocidade; 
0EBB:  MOVF   38,W
0EBC:  MOVWF  28
0EBD:  MOVF   37,W
0EBE:  MOVWF  27
....................         fase = 0; 
0EBF:  CLRF   34
0EC0:  CLRF   33
....................       } 
....................        
....................     } 
....................     contador = 0; 
0EC1:  CLRF   2A
0EC2:  CLRF   29
0EC3:  GOTO   554
....................   } 
.................... } 
....................  
0EC4:  SLEEP
.................... void fase1() { 
....................  
....................   if (contador < 47) { 
*
08B1:  MOVF   2A,F
08B2:  BTFSS  03.2
08B3:  GOTO   0E9
08B4:  MOVF   29,W
08B5:  SUBLW  2E
08B6:  BTFSS  03.0
08B7:  GOTO   0E9
....................     unidade = u1[contador]; // Unidades 
08B8:  MOVF   2A,W
08B9:  MOVWF  7A
08BA:  MOVF   29,W
08BB:  BCF    0A.3
08BC:  CALL   06F
08BD:  BSF    0A.3
08BE:  MOVWF  78
08BF:  CLRF   7A
08C0:  MOVF   78,W
08C1:  MOVWF  2B
08C2:  MOVF   7A,W
08C3:  MOVWF  2C
....................     dezena = d1[contador]; // Dezenas 
08C4:  MOVF   2A,W
08C5:  MOVWF  7A
08C6:  MOVF   29,W
08C7:  BCF    0A.3
08C8:  CALL   0AD
08C9:  BSF    0A.3
08CA:  MOVWF  78
08CB:  CLRF   7A
08CC:  MOVF   78,W
08CD:  MOVWF  2D
08CE:  MOVF   7A,W
08CF:  MOVWF  2E
....................     centena = c1[contador]; // Centenas 
08D0:  MOVF   2A,W
08D1:  MOVWF  7A
08D2:  MOVF   29,W
08D3:  BCF    0A.3
08D4:  CALL   0EB
08D5:  BSF    0A.3
08D6:  MOVWF  78
08D7:  CLRF   7A
08D8:  MOVF   78,W
08D9:  MOVWF  2F
08DA:  MOVF   7A,W
08DB:  MOVWF  30
....................     milhar = m1[contador]; 
08DC:  MOVF   2A,W
08DD:  MOVWF  7A
08DE:  MOVF   29,W
08DF:  BCF    0A.3
08E0:  CALL   12C
08E1:  BSF    0A.3
08E2:  MOVWF  78
08E3:  CLRF   7A
08E4:  MOVF   78,W
08E5:  MOVWF  31
08E6:  MOVF   7A,W
08E7:  MOVWF  32
....................   } else { 
08E8:  GOTO   13D
....................     unidade = u1[contador - 47]; // Unidades 
08E9:  MOVLW  2F
08EA:  SUBWF  29,W
08EB:  MOVWF  4D
08EC:  MOVF   2A,W
08ED:  MOVWF  4E
08EE:  MOVLW  00
08EF:  BTFSS  03.0
08F0:  MOVLW  01
08F1:  SUBWF  4E,F
08F2:  MOVF   4E,W
08F3:  MOVWF  7A
08F4:  MOVF   4D,W
08F5:  BCF    0A.3
08F6:  CALL   06F
08F7:  BSF    0A.3
08F8:  MOVWF  78
08F9:  CLRF   7A
08FA:  MOVF   78,W
08FB:  MOVWF  2B
08FC:  MOVF   7A,W
08FD:  MOVWF  2C
....................     dezena = d1[contador - 47]; // Dezenas 
08FE:  MOVLW  2F
08FF:  SUBWF  29,W
0900:  MOVWF  4D
0901:  MOVF   2A,W
0902:  MOVWF  4E
0903:  MOVLW  00
0904:  BTFSS  03.0
0905:  MOVLW  01
0906:  SUBWF  4E,F
0907:  MOVF   4E,W
0908:  MOVWF  7A
0909:  MOVF   4D,W
090A:  BCF    0A.3
090B:  CALL   0AD
090C:  BSF    0A.3
090D:  MOVWF  78
090E:  CLRF   7A
090F:  MOVF   78,W
0910:  MOVWF  2D
0911:  MOVF   7A,W
0912:  MOVWF  2E
....................     centena = c1[contador - 47]; // Centenas 
0913:  MOVLW  2F
0914:  SUBWF  29,W
0915:  MOVWF  4D
0916:  MOVF   2A,W
0917:  MOVWF  4E
0918:  MOVLW  00
0919:  BTFSS  03.0
091A:  MOVLW  01
091B:  SUBWF  4E,F
091C:  MOVF   4E,W
091D:  MOVWF  7A
091E:  MOVF   4D,W
091F:  BCF    0A.3
0920:  CALL   0EB
0921:  BSF    0A.3
0922:  MOVWF  78
0923:  CLRF   7A
0924:  MOVF   78,W
0925:  MOVWF  2F
0926:  MOVF   7A,W
0927:  MOVWF  30
....................     milhar = m1[contador - 47]; 
0928:  MOVLW  2F
0929:  SUBWF  29,W
092A:  MOVWF  4D
092B:  MOVF   2A,W
092C:  MOVWF  4E
092D:  MOVLW  00
092E:  BTFSS  03.0
092F:  MOVLW  01
0930:  SUBWF  4E,F
0931:  MOVF   4E,W
0932:  MOVWF  7A
0933:  MOVF   4D,W
0934:  BCF    0A.3
0935:  CALL   12C
0936:  BSF    0A.3
0937:  MOVWF  78
0938:  CLRF   7A
0939:  MOVF   78,W
093A:  MOVWF  31
093B:  MOVF   7A,W
093C:  MOVWF  32
....................   } 
....................  
....................   update_display(); // Atualiza o display 
093D:  BCF    0A.3
093E:  CALL   6D5
093F:  BSF    0A.3
....................   verificabotao(); 
0940:  BCF    0A.3
0941:  CALL   786
0942:  BSF    0A.3
....................  
....................   if (contador == 50 && !para_1) { 
0943:  MOVF   29,W
0944:  SUBLW  32
0945:  BTFSS  03.2
0946:  GOTO   170
0947:  MOVF   2A,F
0948:  BTFSS  03.2
0949:  GOTO   170
094A:  BTFSC  3C.1
094B:  GOTO   170
....................     V_INTERVALO_INCREMENTO = V_INTERVALO_INCREMENTO * 0.85; 
094C:  MOVF   28,W
094D:  MOVWF  4E
094E:  MOVF   27,W
094F:  MOVWF  4D
0950:  CALL   000
0951:  MOVF   7A,W
0952:  MOVWF  50
0953:  MOVF   79,W
0954:  MOVWF  4F
0955:  MOVF   78,W
0956:  MOVWF  4E
0957:  MOVF   77,W
0958:  MOVWF  4D
0959:  MOVLW  9A
095A:  MOVWF  54
095B:  MOVLW  99
095C:  MOVWF  53
095D:  MOVLW  59
095E:  MOVWF  52
095F:  MOVLW  7E
0960:  MOVWF  51
0961:  CALL   01D
0962:  MOVF   7A,W
0963:  MOVWF  50
0964:  MOVF   79,W
0965:  MOVWF  4F
0966:  MOVF   78,W
0967:  MOVWF  4E
0968:  MOVF   77,W
0969:  MOVWF  4D
096A:  CALL   092
096B:  MOVF   79,W
096C:  MOVWF  28
096D:  MOVF   78,W
096E:  MOVWF  27
....................     para_1 = 1; 
096F:  BSF    3C.1
....................   } 
....................  
....................   if (contador == 75 && !para_2) { 
0970:  MOVF   29,W
0971:  SUBLW  4B
0972:  BTFSS  03.2
0973:  GOTO   19D
0974:  MOVF   2A,F
0975:  BTFSS  03.2
0976:  GOTO   19D
0977:  BTFSC  3C.2
0978:  GOTO   19D
....................     V_INTERVALO_INCREMENTO = V_INTERVALO_INCREMENTO * 0.85; 
0979:  MOVF   28,W
097A:  MOVWF  4E
097B:  MOVF   27,W
097C:  MOVWF  4D
097D:  CALL   000
097E:  MOVF   7A,W
097F:  MOVWF  50
0980:  MOVF   79,W
0981:  MOVWF  4F
0982:  MOVF   78,W
0983:  MOVWF  4E
0984:  MOVF   77,W
0985:  MOVWF  4D
0986:  MOVLW  9A
0987:  MOVWF  54
0988:  MOVLW  99
0989:  MOVWF  53
098A:  MOVLW  59
098B:  MOVWF  52
098C:  MOVLW  7E
098D:  MOVWF  51
098E:  CALL   01D
098F:  MOVF   7A,W
0990:  MOVWF  50
0991:  MOVF   79,W
0992:  MOVWF  4F
0993:  MOVF   78,W
0994:  MOVWF  4E
0995:  MOVF   77,W
0996:  MOVWF  4D
0997:  CALL   092
0998:  MOVF   79,W
0999:  MOVWF  28
099A:  MOVF   78,W
099B:  MOVWF  27
....................     para_2 = 1; 
099C:  BSF    3C.2
....................   } 
....................  
....................   if (contador == finalfase + 5) { 
099D:  MOVLW  05
099E:  ADDWF  47,W
099F:  MOVWF  78
09A0:  MOVF   48,W
09A1:  MOVWF  7A
09A2:  BTFSC  03.0
09A3:  INCF   7A,F
09A4:  MOVF   78,W
09A5:  SUBWF  29,W
09A6:  BTFSS  03.2
09A7:  GOTO   1AE
09A8:  MOVF   7A,W
09A9:  SUBWF  2A,W
09AA:  BTFSS  03.2
09AB:  GOTO   1AE
....................     fase = 0; 
09AC:  CLRF   34
09AD:  CLRF   33
....................   }   
09AE:  BSF    0A.3
09AF:  BCF    0A.4
09B0:  GOTO   5C7 (RETURN)
....................  
.................... } 
....................  
.................... void fase2() { 
....................   if (contador < 33) { 
*
0A40:  MOVF   2A,F
0A41:  BTFSS  03.2
0A42:  GOTO   278
0A43:  MOVF   29,W
0A44:  SUBLW  20
0A45:  BTFSS  03.0
0A46:  GOTO   278
....................     unidade = u2[contador]; // Unidades 
0A47:  MOVF   2A,W
0A48:  MOVWF  7A
0A49:  MOVF   29,W
0A4A:  BCF    0A.3
0A4B:  CALL   16A
0A4C:  BSF    0A.3
0A4D:  MOVWF  78
0A4E:  CLRF   7A
0A4F:  MOVF   78,W
0A50:  MOVWF  2B
0A51:  MOVF   7A,W
0A52:  MOVWF  2C
....................     dezena = d2[contador]; // Dezenas 
0A53:  MOVF   2A,W
0A54:  MOVWF  7A
0A55:  MOVF   29,W
0A56:  BCF    0A.3
0A57:  CALL   1AB
0A58:  BSF    0A.3
0A59:  MOVWF  78
0A5A:  CLRF   7A
0A5B:  MOVF   78,W
0A5C:  MOVWF  2D
0A5D:  MOVF   7A,W
0A5E:  MOVWF  2E
....................     centena = c2[contador]; // Centenas 
0A5F:  MOVF   2A,W
0A60:  MOVWF  7A
0A61:  MOVF   29,W
0A62:  BCF    0A.3
0A63:  CALL   1EC
0A64:  BSF    0A.3
0A65:  MOVWF  78
0A66:  CLRF   7A
0A67:  MOVF   78,W
0A68:  MOVWF  2F
0A69:  MOVF   7A,W
0A6A:  MOVWF  30
....................     milhar = m2[contador]; 
0A6B:  MOVF   2A,W
0A6C:  MOVWF  7A
0A6D:  MOVF   29,W
0A6E:  BCF    0A.3
0A6F:  CALL   230
0A70:  BSF    0A.3
0A71:  MOVWF  78
0A72:  CLRF   7A
0A73:  MOVF   78,W
0A74:  MOVWF  31
0A75:  MOVF   7A,W
0A76:  MOVWF  32
....................   } else { 
0A77:  GOTO   2CC
....................     unidade = u2[contador - 33]; // Unidades 
0A78:  MOVLW  21
0A79:  SUBWF  29,W
0A7A:  MOVWF  4D
0A7B:  MOVF   2A,W
0A7C:  MOVWF  4E
0A7D:  MOVLW  00
0A7E:  BTFSS  03.0
0A7F:  MOVLW  01
0A80:  SUBWF  4E,F
0A81:  MOVF   4E,W
0A82:  MOVWF  7A
0A83:  MOVF   4D,W
0A84:  BCF    0A.3
0A85:  CALL   16A
0A86:  BSF    0A.3
0A87:  MOVWF  78
0A88:  CLRF   7A
0A89:  MOVF   78,W
0A8A:  MOVWF  2B
0A8B:  MOVF   7A,W
0A8C:  MOVWF  2C
....................     dezena = d2[contador - 33]; // Dezenas 
0A8D:  MOVLW  21
0A8E:  SUBWF  29,W
0A8F:  MOVWF  4D
0A90:  MOVF   2A,W
0A91:  MOVWF  4E
0A92:  MOVLW  00
0A93:  BTFSS  03.0
0A94:  MOVLW  01
0A95:  SUBWF  4E,F
0A96:  MOVF   4E,W
0A97:  MOVWF  7A
0A98:  MOVF   4D,W
0A99:  BCF    0A.3
0A9A:  CALL   1AB
0A9B:  BSF    0A.3
0A9C:  MOVWF  78
0A9D:  CLRF   7A
0A9E:  MOVF   78,W
0A9F:  MOVWF  2D
0AA0:  MOVF   7A,W
0AA1:  MOVWF  2E
....................     centena = c2[contador - 33]; // Centenas 
0AA2:  MOVLW  21
0AA3:  SUBWF  29,W
0AA4:  MOVWF  4D
0AA5:  MOVF   2A,W
0AA6:  MOVWF  4E
0AA7:  MOVLW  00
0AA8:  BTFSS  03.0
0AA9:  MOVLW  01
0AAA:  SUBWF  4E,F
0AAB:  MOVF   4E,W
0AAC:  MOVWF  7A
0AAD:  MOVF   4D,W
0AAE:  BCF    0A.3
0AAF:  CALL   1EC
0AB0:  BSF    0A.3
0AB1:  MOVWF  78
0AB2:  CLRF   7A
0AB3:  MOVF   78,W
0AB4:  MOVWF  2F
0AB5:  MOVF   7A,W
0AB6:  MOVWF  30
....................     milhar = m2[contador - 33]; 
0AB7:  MOVLW  21
0AB8:  SUBWF  29,W
0AB9:  MOVWF  4D
0ABA:  MOVF   2A,W
0ABB:  MOVWF  4E
0ABC:  MOVLW  00
0ABD:  BTFSS  03.0
0ABE:  MOVLW  01
0ABF:  SUBWF  4E,F
0AC0:  MOVF   4E,W
0AC1:  MOVWF  7A
0AC2:  MOVF   4D,W
0AC3:  BCF    0A.3
0AC4:  CALL   230
0AC5:  BSF    0A.3
0AC6:  MOVWF  78
0AC7:  CLRF   7A
0AC8:  MOVF   78,W
0AC9:  MOVWF  31
0ACA:  MOVF   7A,W
0ACB:  MOVWF  32
....................   } 
....................  
....................   update_display(); // Atualiza o display 
0ACC:  BCF    0A.3
0ACD:  CALL   6D5
0ACE:  BSF    0A.3
....................   verificabotao(); 
0ACF:  BCF    0A.3
0AD0:  CALL   786
0AD1:  BSF    0A.3
....................  
....................   if (contador == 12 && !para_1) { 
0AD2:  MOVF   29,W
0AD3:  SUBLW  0C
0AD4:  BTFSS  03.2
0AD5:  GOTO   2FD
0AD6:  MOVF   2A,F
0AD7:  BTFSS  03.2
0AD8:  GOTO   2FD
0AD9:  BTFSC  3C.1
0ADA:  GOTO   2FD
....................     V_INTERVALO_INCREMENTO = V_INTERVALO_INCREMENTO * 0.90; 
0ADB:  MOVF   28,W
0ADC:  MOVWF  4E
0ADD:  MOVF   27,W
0ADE:  MOVWF  4D
0ADF:  CALL   000
0AE0:  MOVF   7A,W
0AE1:  MOVWF  50
0AE2:  MOVF   79,W
0AE3:  MOVWF  4F
0AE4:  MOVF   78,W
0AE5:  MOVWF  4E
0AE6:  MOVF   77,W
0AE7:  MOVWF  4D
0AE8:  MOVLW  66
0AE9:  MOVWF  54
0AEA:  MOVWF  53
0AEB:  MOVWF  52
0AEC:  MOVLW  7E
0AED:  MOVWF  51
0AEE:  CALL   01D
0AEF:  MOVF   7A,W
0AF0:  MOVWF  50
0AF1:  MOVF   79,W
0AF2:  MOVWF  4F
0AF3:  MOVF   78,W
0AF4:  MOVWF  4E
0AF5:  MOVF   77,W
0AF6:  MOVWF  4D
0AF7:  CALL   092
0AF8:  MOVF   79,W
0AF9:  MOVWF  28
0AFA:  MOVF   78,W
0AFB:  MOVWF  27
....................     para_1 = 1; 
0AFC:  BSF    3C.1
....................   } 
....................  
....................   if (contador == 24 && !para_2) { 
0AFD:  MOVF   29,W
0AFE:  SUBLW  18
0AFF:  BTFSS  03.2
0B00:  GOTO   30C
0B01:  MOVF   2A,F
0B02:  BTFSS  03.2
0B03:  GOTO   30C
0B04:  BTFSC  3C.2
0B05:  GOTO   30C
....................     V_INTERVALO_INCREMENTO = velocidade; 
0B06:  MOVF   38,W
0B07:  MOVWF  28
0B08:  MOVF   37,W
0B09:  MOVWF  27
....................     para_2 = 1; 
0B0A:  BSF    3C.2
....................     para_1 = 0; 
0B0B:  BCF    3C.1
....................   } 
....................  
....................   if (contador == 48 && !para_1) { 
0B0C:  MOVF   29,W
0B0D:  SUBLW  30
0B0E:  BTFSS  03.2
0B0F:  GOTO   33A
0B10:  MOVF   2A,F
0B11:  BTFSS  03.2
0B12:  GOTO   33A
0B13:  BTFSC  3C.1
0B14:  GOTO   33A
....................     V_INTERVALO_INCREMENTO = V_INTERVALO_INCREMENTO * 0.80; 
0B15:  MOVF   28,W
0B16:  MOVWF  4E
0B17:  MOVF   27,W
0B18:  MOVWF  4D
0B19:  CALL   000
0B1A:  MOVF   7A,W
0B1B:  MOVWF  50
0B1C:  MOVF   79,W
0B1D:  MOVWF  4F
0B1E:  MOVF   78,W
0B1F:  MOVWF  4E
0B20:  MOVF   77,W
0B21:  MOVWF  4D
0B22:  MOVLW  CD
0B23:  MOVWF  54
0B24:  MOVLW  CC
0B25:  MOVWF  53
0B26:  MOVLW  4C
0B27:  MOVWF  52
0B28:  MOVLW  7E
0B29:  MOVWF  51
0B2A:  CALL   01D
0B2B:  MOVF   7A,W
0B2C:  MOVWF  50
0B2D:  MOVF   79,W
0B2E:  MOVWF  4F
0B2F:  MOVF   78,W
0B30:  MOVWF  4E
0B31:  MOVF   77,W
0B32:  MOVWF  4D
0B33:  CALL   092
0B34:  MOVF   79,W
0B35:  MOVWF  28
0B36:  MOVF   78,W
0B37:  MOVWF  27
....................     para_2 = 0; 
0B38:  BCF    3C.2
....................     para_1 = 1; 
0B39:  BSF    3C.1
....................   } 
....................  
....................   if (contador == 72 && !para_2) { 
0B3A:  MOVF   29,W
0B3B:  SUBLW  48
0B3C:  BTFSS  03.2
0B3D:  GOTO   366
0B3E:  MOVF   2A,F
0B3F:  BTFSS  03.2
0B40:  GOTO   366
0B41:  BTFSC  3C.2
0B42:  GOTO   366
....................     V_INTERVALO_INCREMENTO = V_INTERVALO_INCREMENTO * 0.90; 
0B43:  MOVF   28,W
0B44:  MOVWF  4E
0B45:  MOVF   27,W
0B46:  MOVWF  4D
0B47:  CALL   000
0B48:  MOVF   7A,W
0B49:  MOVWF  50
0B4A:  MOVF   79,W
0B4B:  MOVWF  4F
0B4C:  MOVF   78,W
0B4D:  MOVWF  4E
0B4E:  MOVF   77,W
0B4F:  MOVWF  4D
0B50:  MOVLW  66
0B51:  MOVWF  54
0B52:  MOVWF  53
0B53:  MOVWF  52
0B54:  MOVLW  7E
0B55:  MOVWF  51
0B56:  CALL   01D
0B57:  MOVF   7A,W
0B58:  MOVWF  50
0B59:  MOVF   79,W
0B5A:  MOVWF  4F
0B5B:  MOVF   78,W
0B5C:  MOVWF  4E
0B5D:  MOVF   77,W
0B5E:  MOVWF  4D
0B5F:  CALL   092
0B60:  MOVF   79,W
0B61:  MOVWF  28
0B62:  MOVF   78,W
0B63:  MOVWF  27
....................     para_2 = 1; 
0B64:  BSF    3C.2
....................     para_1 = 0; 
0B65:  BCF    3C.1
....................   } 
....................  
....................   if (contador == 96 && !para_1) { 
0B66:  MOVF   29,W
0B67:  SUBLW  60
0B68:  BTFSS  03.2
0B69:  GOTO   391
0B6A:  MOVF   2A,F
0B6B:  BTFSS  03.2
0B6C:  GOTO   391
0B6D:  BTFSC  3C.1
0B6E:  GOTO   391
....................     V_INTERVALO_INCREMENTO = V_INTERVALO_INCREMENTO * 0.90; 
0B6F:  MOVF   28,W
0B70:  MOVWF  4E
0B71:  MOVF   27,W
0B72:  MOVWF  4D
0B73:  CALL   000
0B74:  MOVF   7A,W
0B75:  MOVWF  50
0B76:  MOVF   79,W
0B77:  MOVWF  4F
0B78:  MOVF   78,W
0B79:  MOVWF  4E
0B7A:  MOVF   77,W
0B7B:  MOVWF  4D
0B7C:  MOVLW  66
0B7D:  MOVWF  54
0B7E:  MOVWF  53
0B7F:  MOVWF  52
0B80:  MOVLW  7E
0B81:  MOVWF  51
0B82:  CALL   01D
0B83:  MOVF   7A,W
0B84:  MOVWF  50
0B85:  MOVF   79,W
0B86:  MOVWF  4F
0B87:  MOVF   78,W
0B88:  MOVWF  4E
0B89:  MOVF   77,W
0B8A:  MOVWF  4D
0B8B:  CALL   092
0B8C:  MOVF   79,W
0B8D:  MOVWF  28
0B8E:  MOVF   78,W
0B8F:  MOVWF  27
....................     para_1 = 1; 
0B90:  BSF    3C.1
....................   } 
....................  
....................   if (contador == finalfase + 5) { 
0B91:  MOVLW  05
0B92:  ADDWF  47,W
0B93:  MOVWF  78
0B94:  MOVF   48,W
0B95:  MOVWF  7A
0B96:  BTFSC  03.0
0B97:  INCF   7A,F
0B98:  MOVF   78,W
0B99:  SUBWF  29,W
0B9A:  BTFSS  03.2
0B9B:  GOTO   3A2
0B9C:  MOVF   7A,W
0B9D:  SUBWF  2A,W
0B9E:  BTFSS  03.2
0B9F:  GOTO   3A2
....................     fase = 0; 
0BA0:  CLRF   34
0BA1:  CLRF   33
....................   } 
0BA2:  BSF    0A.3
0BA3:  BCF    0A.4
0BA4:  GOTO   602 (RETURN)
....................      
.................... } 
....................  
.................... void fase3() { 
....................  
....................   unidade = u3[contador]; // Unidades 
0BA5:  MOVF   2A,W
0BA6:  MOVWF  7A
0BA7:  MOVF   29,W
0BA8:  BCF    0A.3
0BA9:  CALL   271
0BAA:  BSF    0A.3
0BAB:  MOVWF  78
0BAC:  CLRF   7A
0BAD:  MOVF   78,W
0BAE:  MOVWF  2B
0BAF:  MOVF   7A,W
0BB0:  MOVWF  2C
....................   dezena = d3[contador]; // Dezenas 
0BB1:  MOVF   2A,W
0BB2:  MOVWF  7A
0BB3:  MOVF   29,W
0BB4:  BCF    0A.3
0BB5:  CALL   2DE
0BB6:  BSF    0A.3
0BB7:  MOVWF  78
0BB8:  CLRF   7A
0BB9:  MOVF   78,W
0BBA:  MOVWF  2D
0BBB:  MOVF   7A,W
0BBC:  MOVWF  2E
....................   centena = c3[contador]; // Centenas 
0BBD:  MOVF   2A,W
0BBE:  MOVWF  7A
0BBF:  MOVF   29,W
0BC0:  BCF    0A.3
0BC1:  CALL   34E
0BC2:  BSF    0A.3
0BC3:  MOVWF  78
0BC4:  CLRF   7A
0BC5:  MOVF   78,W
0BC6:  MOVWF  2F
0BC7:  MOVF   7A,W
0BC8:  MOVWF  30
....................   milhar = m3[contador]; // Milhares              
0BC9:  MOVF   2A,W
0BCA:  MOVWF  7A
0BCB:  MOVF   29,W
0BCC:  BCF    0A.3
0BCD:  CALL   3BB
0BCE:  BSF    0A.3
0BCF:  MOVWF  78
0BD0:  CLRF   7A
0BD1:  MOVF   78,W
0BD2:  MOVWF  31
0BD3:  MOVF   7A,W
0BD4:  MOVWF  32
....................  
....................   update_display(); // Atualiza o display 
0BD5:  BCF    0A.3
0BD6:  CALL   6D5
0BD7:  BSF    0A.3
....................   verificabotao(); 
0BD8:  BCF    0A.3
0BD9:  CALL   786
0BDA:  BSF    0A.3
....................  
....................   if ((contador + 1) % 3 == 0 && !para_1 && contador < 30) { 
0BDB:  MOVLW  01
0BDC:  ADDWF  29,W
0BDD:  MOVWF  4D
0BDE:  MOVF   2A,W
0BDF:  MOVWF  4E
0BE0:  BTFSC  03.0
0BE1:  INCF   4E,F
0BE2:  MOVF   4E,W
0BE3:  MOVWF  52
0BE4:  MOVF   4D,W
0BE5:  MOVWF  51
0BE6:  CLRF   54
0BE7:  MOVLW  03
0BE8:  MOVWF  53
0BE9:  BCF    0A.3
0BEA:  CALL   5C2
0BEB:  BSF    0A.3
0BEC:  MOVF   77,W
0BED:  MOVWF  4D
0BEE:  MOVF   7A,W
0BEF:  MOVWF  4E
0BF0:  MOVF   4D,F
0BF1:  BTFSS  03.2
0BF2:  GOTO   424
0BF3:  MOVF   4E,F
0BF4:  BTFSS  03.2
0BF5:  GOTO   424
0BF6:  BTFSC  3C.1
0BF7:  GOTO   424
0BF8:  MOVF   2A,F
0BF9:  BTFSS  03.2
0BFA:  GOTO   424
0BFB:  MOVF   29,W
0BFC:  SUBLW  1D
0BFD:  BTFSS  03.0
0BFE:  GOTO   424
....................     V_INTERVALO_INCREMENTO = V_INTERVALO_INCREMENTO * 0.94; 
0BFF:  MOVF   28,W
0C00:  MOVWF  4E
0C01:  MOVF   27,W
0C02:  MOVWF  4D
0C03:  CALL   000
0C04:  MOVF   7A,W
0C05:  MOVWF  50
0C06:  MOVF   79,W
0C07:  MOVWF  4F
0C08:  MOVF   78,W
0C09:  MOVWF  4E
0C0A:  MOVF   77,W
0C0B:  MOVWF  4D
0C0C:  MOVLW  D7
0C0D:  MOVWF  54
0C0E:  MOVLW  A3
0C0F:  MOVWF  53
0C10:  MOVLW  70
0C11:  MOVWF  52
0C12:  MOVLW  7E
0C13:  MOVWF  51
0C14:  CALL   01D
0C15:  MOVF   7A,W
0C16:  MOVWF  50
0C17:  MOVF   79,W
0C18:  MOVWF  4F
0C19:  MOVF   78,W
0C1A:  MOVWF  4E
0C1B:  MOVF   77,W
0C1C:  MOVWF  4D
0C1D:  CALL   092
0C1E:  MOVF   79,W
0C1F:  MOVWF  28
0C20:  MOVF   78,W
0C21:  MOVWF  27
....................     para_1 = 1; 
0C22:  BSF    3C.1
....................     para_2 = 0; 
0C23:  BCF    3C.2
....................   } 
....................  
....................   if ((contador + 1) % 4 == 0 && !para_2 && (contador + 1) % 12) { 
0C24:  MOVLW  01
0C25:  ADDWF  29,W
0C26:  MOVWF  4D
0C27:  MOVF   2A,W
0C28:  MOVWF  4E
0C29:  BTFSC  03.0
0C2A:  INCF   4E,F
0C2B:  MOVLW  03
0C2C:  ANDWF  4D,F
0C2D:  CLRF   4E
0C2E:  MOVF   4D,F
0C2F:  BTFSS  03.2
0C30:  GOTO   44D
0C31:  MOVF   4E,F
0C32:  BTFSS  03.2
0C33:  GOTO   44D
0C34:  BTFSC  3C.2
0C35:  GOTO   44D
0C36:  MOVLW  01
0C37:  ADDWF  29,W
0C38:  MOVWF  4D
0C39:  MOVF   2A,W
0C3A:  MOVWF  4E
0C3B:  BTFSC  03.0
0C3C:  INCF   4E,F
0C3D:  MOVF   4E,W
0C3E:  MOVWF  52
0C3F:  MOVF   4D,W
0C40:  MOVWF  51
0C41:  CLRF   54
0C42:  MOVLW  0C
0C43:  MOVWF  53
0C44:  BCF    0A.3
0C45:  CALL   5C2
0C46:  BSF    0A.3
0C47:  MOVF   77,W
0C48:  IORWF  7A,W
0C49:  BTFSC  03.2
0C4A:  GOTO   44D
....................     para_1 = 0; 
0C4B:  BCF    3C.1
....................     para_2 = 1; 
0C4C:  BSF    3C.2
....................   } 
....................  
....................   if (contador == finalfase + 5) { 
0C4D:  MOVLW  05
0C4E:  ADDWF  47,W
0C4F:  MOVWF  78
0C50:  MOVF   48,W
0C51:  MOVWF  7A
0C52:  BTFSC  03.0
0C53:  INCF   7A,F
0C54:  MOVF   78,W
0C55:  SUBWF  29,W
0C56:  BTFSS  03.2
0C57:  GOTO   45E
0C58:  MOVF   7A,W
0C59:  SUBWF  2A,W
0C5A:  BTFSS  03.2
0C5B:  GOTO   45E
....................     fase = 0; 
0C5C:  CLRF   34
0C5D:  CLRF   33
....................   } 
0C5E:  BSF    0A.3
0C5F:  BCF    0A.4
0C60:  GOTO   63D (RETURN)
....................      
.................... } 
....................  
.................... void fase4() { 
....................  
....................   if (contador < 50) { 
0C61:  MOVF   2A,F
0C62:  BTFSS  03.2
0C63:  GOTO   499
0C64:  MOVF   29,W
0C65:  SUBLW  31
0C66:  BTFSS  03.0
0C67:  GOTO   499
....................     unidade = u4[contador]; // Unidades 
0C68:  MOVF   2A,W
0C69:  MOVWF  7A
0C6A:  MOVF   29,W
0C6B:  BCF    0A.3
0C6C:  CALL   42B
0C6D:  BSF    0A.3
0C6E:  MOVWF  78
0C6F:  CLRF   7A
0C70:  MOVF   78,W
0C71:  MOVWF  2B
0C72:  MOVF   7A,W
0C73:  MOVWF  2C
....................     dezena = d4[contador]; // Dezenas 
0C74:  MOVF   2A,W
0C75:  MOVWF  7A
0C76:  MOVF   29,W
0C77:  BCF    0A.3
0C78:  CALL   467
0C79:  BSF    0A.3
0C7A:  MOVWF  78
0C7B:  CLRF   7A
0C7C:  MOVF   78,W
0C7D:  MOVWF  2D
0C7E:  MOVF   7A,W
0C7F:  MOVWF  2E
....................     centena = c4[contador]; // Centenas 
0C80:  MOVF   2A,W
0C81:  MOVWF  7A
0C82:  MOVF   29,W
0C83:  BCF    0A.3
0C84:  CALL   4A3
0C85:  BSF    0A.3
0C86:  MOVWF  78
0C87:  CLRF   7A
0C88:  MOVF   78,W
0C89:  MOVWF  2F
0C8A:  MOVF   7A,W
0C8B:  MOVWF  30
....................     milhar = m4[contador]; 
0C8C:  MOVF   2A,W
0C8D:  MOVWF  7A
0C8E:  MOVF   29,W
0C8F:  BCF    0A.3
0C90:  CALL   4DF
0C91:  BSF    0A.3
0C92:  MOVWF  78
0C93:  CLRF   7A
0C94:  MOVF   78,W
0C95:  MOVWF  31
0C96:  MOVF   7A,W
0C97:  MOVWF  32
....................   } else { 
0C98:  GOTO   4ED
....................     unidade = u4[contador - 50]; // Unidades 
0C99:  MOVLW  32
0C9A:  SUBWF  29,W
0C9B:  MOVWF  4D
0C9C:  MOVF   2A,W
0C9D:  MOVWF  4E
0C9E:  MOVLW  00
0C9F:  BTFSS  03.0
0CA0:  MOVLW  01
0CA1:  SUBWF  4E,F
0CA2:  MOVF   4E,W
0CA3:  MOVWF  7A
0CA4:  MOVF   4D,W
0CA5:  BCF    0A.3
0CA6:  CALL   42B
0CA7:  BSF    0A.3
0CA8:  MOVWF  78
0CA9:  CLRF   7A
0CAA:  MOVF   78,W
0CAB:  MOVWF  2B
0CAC:  MOVF   7A,W
0CAD:  MOVWF  2C
....................     dezena = d4[contador - 50]; // Dezenas 
0CAE:  MOVLW  32
0CAF:  SUBWF  29,W
0CB0:  MOVWF  4D
0CB1:  MOVF   2A,W
0CB2:  MOVWF  4E
0CB3:  MOVLW  00
0CB4:  BTFSS  03.0
0CB5:  MOVLW  01
0CB6:  SUBWF  4E,F
0CB7:  MOVF   4E,W
0CB8:  MOVWF  7A
0CB9:  MOVF   4D,W
0CBA:  BCF    0A.3
0CBB:  CALL   467
0CBC:  BSF    0A.3
0CBD:  MOVWF  78
0CBE:  CLRF   7A
0CBF:  MOVF   78,W
0CC0:  MOVWF  2D
0CC1:  MOVF   7A,W
0CC2:  MOVWF  2E
....................     centena = c4[contador - 50]; // Centenas 
0CC3:  MOVLW  32
0CC4:  SUBWF  29,W
0CC5:  MOVWF  4D
0CC6:  MOVF   2A,W
0CC7:  MOVWF  4E
0CC8:  MOVLW  00
0CC9:  BTFSS  03.0
0CCA:  MOVLW  01
0CCB:  SUBWF  4E,F
0CCC:  MOVF   4E,W
0CCD:  MOVWF  7A
0CCE:  MOVF   4D,W
0CCF:  BCF    0A.3
0CD0:  CALL   4A3
0CD1:  BSF    0A.3
0CD2:  MOVWF  78
0CD3:  CLRF   7A
0CD4:  MOVF   78,W
0CD5:  MOVWF  2F
0CD6:  MOVF   7A,W
0CD7:  MOVWF  30
....................     milhar = m4[contador - 50]; 
0CD8:  MOVLW  32
0CD9:  SUBWF  29,W
0CDA:  MOVWF  4D
0CDB:  MOVF   2A,W
0CDC:  MOVWF  4E
0CDD:  MOVLW  00
0CDE:  BTFSS  03.0
0CDF:  MOVLW  01
0CE0:  SUBWF  4E,F
0CE1:  MOVF   4E,W
0CE2:  MOVWF  7A
0CE3:  MOVF   4D,W
0CE4:  BCF    0A.3
0CE5:  CALL   4DF
0CE6:  BSF    0A.3
0CE7:  MOVWF  78
0CE8:  CLRF   7A
0CE9:  MOVF   78,W
0CEA:  MOVWF  31
0CEB:  MOVF   7A,W
0CEC:  MOVWF  32
....................   } 
....................  
....................   update_display(); // Atualiza o display 
0CED:  BCF    0A.3
0CEE:  CALL   6D5
0CEF:  BSF    0A.3
....................   verificabotao(); 
0CF0:  BCF    0A.3
0CF1:  CALL   786
0CF2:  BSF    0A.3
....................  
....................   if (contador == finalfase + 5) { 
0CF3:  MOVLW  05
0CF4:  ADDWF  47,W
0CF5:  MOVWF  78
0CF6:  MOVF   48,W
0CF7:  MOVWF  7A
0CF8:  BTFSC  03.0
0CF9:  INCF   7A,F
0CFA:  MOVF   78,W
0CFB:  SUBWF  29,W
0CFC:  BTFSS  03.2
0CFD:  GOTO   504
0CFE:  MOVF   7A,W
0CFF:  SUBWF  2A,W
0D00:  BTFSS  03.2
0D01:  GOTO   504
....................    fase = 0; 
0D02:  CLRF   34
0D03:  CLRF   33
....................   } 
0D04:  BSF    0A.3
0D05:  BCF    0A.4
0D06:  GOTO   69B (RETURN)
....................      
.................... } 
....................  
.................... void escolha_de_fase() { 
....................  
....................   if (!input(S4)) { 
*
072A:  BSF    03.5
072B:  BSF    06.3
072C:  BCF    03.5
072D:  BTFSC  06.3
072E:  GOTO   732
....................     fase = 4; 
072F:  CLRF   34
0730:  MOVLW  04
0731:  MOVWF  33
....................   } 
....................  
....................   if (!input(S3)) { 
0732:  BSF    03.5
0733:  BSF    06.2
0734:  BCF    03.5
0735:  BTFSC  06.2
0736:  GOTO   73A
....................     fase = 3; 
0737:  CLRF   34
0738:  MOVLW  03
0739:  MOVWF  33
....................   } 
....................   if (!input(S2)) { 
073A:  BSF    03.5
073B:  BSF    06.1
073C:  BCF    03.5
073D:  BTFSC  06.1
073E:  GOTO   742
....................     fase = 2; 
073F:  CLRF   34
0740:  MOVLW  02
0741:  MOVWF  33
....................   } 
....................   if (!input(S1)) { 
0742:  BSF    03.5
0743:  BSF    06.0
0744:  BCF    03.5
0745:  BTFSC  06.0
0746:  GOTO   74A
....................     fase = 1; 
0747:  CLRF   34
0748:  MOVLW  01
0749:  MOVWF  33
....................   } 
....................  
....................   if (fase) { 
074A:  MOVF   33,W
074B:  IORWF  34,W
074C:  BTFSC  03.2
074D:  GOTO   783
....................     output_low(DM); 
074E:  BSF    03.5
074F:  BCF    06.7
0750:  BCF    03.5
0751:  BCF    06.7
....................     output_low(DD); 
0752:  BSF    03.5
0753:  BCF    06.5
0754:  BCF    03.5
0755:  BCF    06.5
....................     output_low(DC); 
0756:  BSF    03.5
0757:  BCF    06.6
0758:  BCF    03.5
0759:  BCF    06.6
....................     output_low(DU); 
075A:  BSF    03.5
075B:  BCF    06.4
075C:  BCF    03.5
075D:  BCF    06.4
....................     inicio = 3; 
075E:  CLRF   36
075F:  MOVLW  03
0760:  MOVWF  35
....................     V_INTERVALO_INCREMENTO = V_INTERVALO_INCREMENTO * 2; 
0761:  BCF    03.0
0762:  RLF    27,F
0763:  RLF    28,F
....................     output_high(DU); 
0764:  BSF    03.5
0765:  BCF    06.4
0766:  BCF    03.5
0767:  BSF    06.4
....................  
....................     while (inicio > 0) { 
0768:  MOVF   35,F
0769:  BTFSS  03.2
076A:  GOTO   76E
076B:  MOVF   36,F
076C:  BTFSC  03.2
076D:  GOTO   780
....................       unidade = inicio; 
076E:  MOVF   36,W
076F:  MOVWF  2C
0770:  MOVF   35,W
0771:  MOVWF  2B
....................       dezena = 12; 
0772:  CLRF   2E
0773:  MOVLW  0C
0774:  MOVWF  2D
....................       centena = 12; // Unidades 
0775:  CLRF   30
0776:  MOVWF  2F
....................       milhar = inicio; 
0777:  MOVF   36,W
0778:  MOVWF  32
0779:  MOVF   35,W
077A:  MOVWF  31
....................       update_display(); 
077B:  CALL   6D5
....................       delay(30); 
077C:  MOVLW  1E
077D:  MOVWF  4D
077E:  CALL   5E7
077F:  GOTO   768
....................     } 
....................  
....................     V_INTERVALO_INCREMENTO = V_INTERVALO_INCREMENTO / 2; 
0780:  BCF    03.0
0781:  RRF    28,F
0782:  RRF    27,F
....................   } 
0783:  BSF    0A.3
0784:  BCF    0A.4
0785:  GOTO   5B3 (RETURN)
.................... } 
....................  
.................... void falha() { 
....................   inicio = 7; 
*
09B1:  CLRF   36
09B2:  MOVLW  07
09B3:  MOVWF  35
....................  
....................   unidade = 12; 
09B4:  CLRF   2C
09B5:  MOVLW  0C
09B6:  MOVWF  2B
....................   if (contador % 10) { 
09B7:  MOVF   2A,W
09B8:  MOVWF  52
09B9:  MOVF   29,W
09BA:  MOVWF  51
09BB:  CLRF   54
09BC:  MOVLW  0A
09BD:  MOVWF  53
09BE:  BCF    0A.3
09BF:  CALL   5C2
09C0:  BSF    0A.3
09C1:  MOVF   77,W
09C2:  IORWF  7A,W
09C3:  BTFSC  03.2
09C4:  GOTO   206
....................     dezena = -(contador % 10) + 10; 
09C5:  MOVF   2A,W
09C6:  MOVWF  52
09C7:  MOVF   29,W
09C8:  MOVWF  51
09C9:  CLRF   54
09CA:  MOVLW  0A
09CB:  MOVWF  53
09CC:  BCF    0A.3
09CD:  CALL   5C2
09CE:  BSF    0A.3
09CF:  MOVF   77,W
09D0:  SUBLW  00
09D1:  MOVWF  4D
09D2:  CLRF   4E
09D3:  MOVF   7A,W
09D4:  BTFSS  03.0
09D5:  INCFSZ 7A,W
09D6:  SUBWF  4E,F
09D7:  MOVLW  0A
09D8:  ADDWF  4D,W
09D9:  MOVWF  2D
09DA:  MOVF   4E,W
09DB:  MOVWF  2E
09DC:  BTFSC  03.0
09DD:  INCF   2E,F
....................     centena = -((contador / 10) % 10) + 9; 
09DE:  MOVF   2A,W
09DF:  MOVWF  52
09E0:  MOVF   29,W
09E1:  MOVWF  51
09E2:  CLRF   54
09E3:  MOVLW  0A
09E4:  MOVWF  53
09E5:  BCF    0A.3
09E6:  CALL   5C2
09E7:  BSF    0A.3
09E8:  MOVF   79,W
09E9:  MOVWF  4E
09EA:  MOVF   78,W
09EB:  MOVWF  4D
09EC:  MOVF   79,W
09ED:  MOVWF  52
09EE:  MOVF   78,W
09EF:  MOVWF  51
09F0:  CLRF   54
09F1:  MOVLW  0A
09F2:  MOVWF  53
09F3:  BCF    0A.3
09F4:  CALL   5C2
09F5:  BSF    0A.3
09F6:  MOVF   77,W
09F7:  SUBLW  00
09F8:  MOVWF  4D
09F9:  CLRF   4E
09FA:  MOVF   7A,W
09FB:  BTFSS  03.0
09FC:  INCFSZ 7A,W
09FD:  SUBWF  4E,F
09FE:  MOVLW  09
09FF:  ADDWF  4D,W
0A00:  MOVWF  2F
0A01:  MOVF   4E,W
0A02:  MOVWF  30
0A03:  BTFSC  03.0
0A04:  INCF   30,F
....................   } else { 
0A05:  GOTO   22F
....................     dezena = 0; 
0A06:  CLRF   2E
0A07:  CLRF   2D
....................     centena = -((contador / 10) % 10) + 10; 
0A08:  MOVF   2A,W
0A09:  MOVWF  52
0A0A:  MOVF   29,W
0A0B:  MOVWF  51
0A0C:  CLRF   54
0A0D:  MOVLW  0A
0A0E:  MOVWF  53
0A0F:  BCF    0A.3
0A10:  CALL   5C2
0A11:  BSF    0A.3
0A12:  MOVF   79,W
0A13:  MOVWF  4E
0A14:  MOVF   78,W
0A15:  MOVWF  4D
0A16:  MOVF   79,W
0A17:  MOVWF  52
0A18:  MOVF   78,W
0A19:  MOVWF  51
0A1A:  CLRF   54
0A1B:  MOVLW  0A
0A1C:  MOVWF  53
0A1D:  BCF    0A.3
0A1E:  CALL   5C2
0A1F:  BSF    0A.3
0A20:  MOVF   77,W
0A21:  SUBLW  00
0A22:  MOVWF  4D
0A23:  CLRF   4E
0A24:  MOVF   7A,W
0A25:  BTFSS  03.0
0A26:  INCFSZ 7A,W
0A27:  SUBWF  4E,F
0A28:  MOVLW  0A
0A29:  ADDWF  4D,W
0A2A:  MOVWF  2F
0A2B:  MOVF   4E,W
0A2C:  MOVWF  30
0A2D:  BTFSC  03.0
0A2E:  INCF   30,F
....................   } 
....................   milhar = 12; 
0A2F:  CLRF   32
0A30:  MOVLW  0C
0A31:  MOVWF  31
....................  
....................   while (inicio) { 
0A32:  MOVF   35,W
0A33:  IORWF  36,W
0A34:  BTFSC  03.2
0A35:  GOTO   23F
....................     update_display(); 
0A36:  BCF    0A.3
0A37:  CALL   6D5
0A38:  BSF    0A.3
....................     delay(15); 
0A39:  MOVLW  0F
0A3A:  MOVWF  4D
0A3B:  BCF    0A.3
0A3C:  CALL   5E7
0A3D:  BSF    0A.3
0A3E:  GOTO   232
....................   } 
0A3F:  RETURN
.................... } 
....................  
.................... void tela_inicial() { 
....................  
....................   if (contador_tela_inicial == 1 || contador_tela_inicial == 2) { 
*
05EF:  DECFSZ 45,W
05F0:  GOTO   5F4
05F1:  MOVF   46,F
05F2:  BTFSC  03.2
05F3:  GOTO   5FB
05F4:  MOVF   45,W
05F5:  SUBLW  02
05F6:  BTFSS  03.2
05F7:  GOTO   65A
05F8:  MOVF   46,F
05F9:  BTFSS  03.2
05FA:  GOTO   65A
....................     output_low(DM); 
05FB:  BSF    03.5
05FC:  BCF    06.7
05FD:  BCF    03.5
05FE:  BCF    06.7
....................     output_low(DU); 
05FF:  BSF    03.5
0600:  BCF    06.4
0601:  BCF    03.5
0602:  BCF    06.4
....................  
....................     if (vez_contador_tela_inicial) { 
0603:  MOVF   49,W
0604:  IORWF  4A,W
0605:  BTFSC  03.2
0606:  GOTO   630
....................       output_low(DC); 
0607:  BSF    03.5
0608:  BCF    06.6
0609:  BCF    03.5
060A:  BCF    06.6
....................       output_high(DD); 
060B:  BSF    03.5
060C:  BCF    06.5
060D:  BCF    03.5
060E:  BSF    06.5
....................  
....................       if (!pasou_fase_3) { 
060F:  BTFSC  3C.6
0610:  GOTO   61C
....................         output_d(listadisplay3[contador_tela_inicial]); 
0611:  MOVF   46,W
0612:  MOVWF  7A
0613:  MOVF   45,W
0614:  CALL   03F
0615:  MOVWF  4D
0616:  BSF    03.5
0617:  CLRF   08
0618:  BCF    03.5
0619:  MOVF   4D,W
061A:  MOVWF  08
....................       } else { 
061B:  GOTO   62D
....................         output_d(listadisplay3[contador_tela_inicial + 6]); 
061C:  MOVLW  06
061D:  ADDWF  45,W
061E:  MOVWF  4D
061F:  MOVF   46,W
0620:  MOVWF  4E
0621:  BTFSC  03.0
0622:  INCF   4E,F
0623:  MOVF   4E,W
0624:  MOVWF  7A
0625:  MOVF   4D,W
0626:  CALL   03F
0627:  MOVWF  4F
0628:  BSF    03.5
0629:  CLRF   08
062A:  BCF    03.5
062B:  MOVF   4F,W
062C:  MOVWF  08
....................       } 
....................  
....................       vez_contador_tela_inicial = 0; 
062D:  CLRF   4A
062E:  CLRF   49
....................     } else { 
062F:  GOTO   659
....................       output_low(DD); 
0630:  BSF    03.5
0631:  BCF    06.5
0632:  BCF    03.5
0633:  BCF    06.5
....................       output_high(DC); 
0634:  BSF    03.5
0635:  BCF    06.6
0636:  BCF    03.5
0637:  BSF    06.6
....................  
....................       if (!pasou_fase_2) { 
0638:  BTFSC  3C.5
0639:  GOTO   645
....................         output_d(listadisplay2[contador_tela_inicial]); 
063A:  MOVF   46,W
063B:  MOVWF  7A
063C:  MOVF   45,W
063D:  CALL   04F
063E:  MOVWF  4D
063F:  BSF    03.5
0640:  CLRF   08
0641:  BCF    03.5
0642:  MOVF   4D,W
0643:  MOVWF  08
....................       } else { 
0644:  GOTO   656
....................         output_d(listadisplay2[contador_tela_inicial + 6]); 
0645:  MOVLW  06
0646:  ADDWF  45,W
0647:  MOVWF  4D
0648:  MOVF   46,W
0649:  MOVWF  4E
064A:  BTFSC  03.0
064B:  INCF   4E,F
064C:  MOVF   4E,W
064D:  MOVWF  7A
064E:  MOVF   4D,W
064F:  CALL   04F
0650:  MOVWF  4F
0651:  BSF    03.5
0652:  CLRF   08
0653:  BCF    03.5
0654:  MOVF   4F,W
0655:  MOVWF  08
....................       } 
....................  
....................       vez_contador_tela_inicial = 1; 
0656:  CLRF   4A
0657:  MOVLW  01
0658:  MOVWF  49
....................     } 
....................  
....................   } else { 
0659:  GOTO   6B8
....................     output_low(DD); 
065A:  BSF    03.5
065B:  BCF    06.5
065C:  BCF    03.5
065D:  BCF    06.5
....................     output_low(DC); 
065E:  BSF    03.5
065F:  BCF    06.6
0660:  BCF    03.5
0661:  BCF    06.6
....................  
....................     if (vez_contador_tela_inicial) { 
0662:  MOVF   49,W
0663:  IORWF  4A,W
0664:  BTFSC  03.2
0665:  GOTO   68F
....................       output_low(DM); 
0666:  BSF    03.5
0667:  BCF    06.7
0668:  BCF    03.5
0669:  BCF    06.7
....................       output_high(DU); 
066A:  BSF    03.5
066B:  BCF    06.4
066C:  BCF    03.5
066D:  BSF    06.4
....................  
....................       if (!pasou_fase_4) { 
066E:  BTFSC  3C.7
066F:  GOTO   67B
....................         output_d(listadisplay4[contador_tela_inicial]); 
0670:  MOVF   46,W
0671:  MOVWF  7A
0672:  MOVF   45,W
0673:  CALL   02F
0674:  MOVWF  4D
0675:  BSF    03.5
0676:  CLRF   08
0677:  BCF    03.5
0678:  MOVF   4D,W
0679:  MOVWF  08
....................       } else { 
067A:  GOTO   68C
....................         output_d(listadisplay4[contador_tela_inicial + 6]); 
067B:  MOVLW  06
067C:  ADDWF  45,W
067D:  MOVWF  4D
067E:  MOVF   46,W
067F:  MOVWF  4E
0680:  BTFSC  03.0
0681:  INCF   4E,F
0682:  MOVF   4E,W
0683:  MOVWF  7A
0684:  MOVF   4D,W
0685:  CALL   02F
0686:  MOVWF  4F
0687:  BSF    03.5
0688:  CLRF   08
0689:  BCF    03.5
068A:  MOVF   4F,W
068B:  MOVWF  08
....................       } 
....................  
....................       vez_contador_tela_inicial = 0; 
068C:  CLRF   4A
068D:  CLRF   49
....................     } else { 
068E:  GOTO   6B8
....................       output_low(DU); 
068F:  BSF    03.5
0690:  BCF    06.4
0691:  BCF    03.5
0692:  BCF    06.4
....................       output_high(DM); 
0693:  BSF    03.5
0694:  BCF    06.7
0695:  BCF    03.5
0696:  BSF    06.7
....................  
....................       if (!pasou_fase_1) { 
0697:  BTFSC  3C.4
0698:  GOTO   6A4
....................         output_d(listadisplay1[contador_tela_inicial]); 
0699:  MOVF   46,W
069A:  MOVWF  7A
069B:  MOVF   45,W
069C:  CALL   05F
069D:  MOVWF  4D
069E:  BSF    03.5
069F:  CLRF   08
06A0:  BCF    03.5
06A1:  MOVF   4D,W
06A2:  MOVWF  08
....................       } else { 
06A3:  GOTO   6B5
....................         output_d(listadisplay1[contador_tela_inicial + 6]); 
06A4:  MOVLW  06
06A5:  ADDWF  45,W
06A6:  MOVWF  4D
06A7:  MOVF   46,W
06A8:  MOVWF  4E
06A9:  BTFSC  03.0
06AA:  INCF   4E,F
06AB:  MOVF   4E,W
06AC:  MOVWF  7A
06AD:  MOVF   4D,W
06AE:  CALL   05F
06AF:  MOVWF  4F
06B0:  BSF    03.5
06B1:  CLRF   08
06B2:  BCF    03.5
06B3:  MOVF   4F,W
06B4:  MOVWF  08
....................       } 
....................  
....................       vez_contador_tela_inicial = 1; 
06B5:  CLRF   4A
06B6:  MOVLW  01
06B7:  MOVWF  49
....................     } 
....................   } 
....................   delay(35); 
06B8:  MOVLW  23
06B9:  MOVWF  4D
06BA:  CALL   5E7
06BB:  BSF    0A.3
06BC:  BCF    0A.4
06BD:  GOTO   585 (RETURN)
....................  
.................... } 
....................  
.................... void update_display() { 
....................   delay(25); 
*
06D5:  MOVLW  19
06D6:  MOVWF  4D
06D7:  CALL   5E7
....................   if (input_state(DU)) { 
06D8:  BTFSS  06.4
06D9:  GOTO   6ED
....................     output_low(DU); 
06DA:  BSF    03.5
06DB:  BCF    06.4
06DC:  BCF    03.5
06DD:  BCF    06.4
....................     output_high(DD); 
06DE:  BSF    03.5
06DF:  BCF    06.5
06E0:  BCF    03.5
06E1:  BSF    06.5
....................     output_d(display_numbers[dezena]); 
06E2:  MOVF   2E,W
06E3:  MOVWF  7A
06E4:  MOVF   2D,W
06E5:  CALL   51E
06E6:  MOVWF  4D
06E7:  BSF    03.5
06E8:  CLRF   08
06E9:  BCF    03.5
06EA:  MOVF   4D,W
06EB:  MOVWF  08
....................   } else if (input_state(DD)) { 
06EC:  GOTO   729
06ED:  BTFSS  06.5
06EE:  GOTO   702
....................     output_low(DD); 
06EF:  BSF    03.5
06F0:  BCF    06.5
06F1:  BCF    03.5
06F2:  BCF    06.5
....................     output_high(DC); 
06F3:  BSF    03.5
06F4:  BCF    06.6
06F5:  BCF    03.5
06F6:  BSF    06.6
....................     output_d(display_numbers[centena]); 
06F7:  MOVF   30,W
06F8:  MOVWF  7A
06F9:  MOVF   2F,W
06FA:  CALL   51E
06FB:  MOVWF  4D
06FC:  BSF    03.5
06FD:  CLRF   08
06FE:  BCF    03.5
06FF:  MOVF   4D,W
0700:  MOVWF  08
....................   } else if (input_state(DC)) { 
0701:  GOTO   729
0702:  BTFSS  06.6
0703:  GOTO   717
....................     output_low(DC); 
0704:  BSF    03.5
0705:  BCF    06.6
0706:  BCF    03.5
0707:  BCF    06.6
....................     output_high(DM); 
0708:  BSF    03.5
0709:  BCF    06.7
070A:  BCF    03.5
070B:  BSF    06.7
....................     output_d(display_numbers[milhar]); 
070C:  MOVF   32,W
070D:  MOVWF  7A
070E:  MOVF   31,W
070F:  CALL   51E
0710:  MOVWF  4D
0711:  BSF    03.5
0712:  CLRF   08
0713:  BCF    03.5
0714:  MOVF   4D,W
0715:  MOVWF  08
....................   } else { 
0716:  GOTO   729
....................     output_low(DM); 
0717:  BSF    03.5
0718:  BCF    06.7
0719:  BCF    03.5
071A:  BCF    06.7
....................     output_high(DU); 
071B:  BSF    03.5
071C:  BCF    06.4
071D:  BCF    03.5
071E:  BSF    06.4
....................     output_d(display_numbers[unidade]); 
071F:  MOVF   2C,W
0720:  MOVWF  7A
0721:  MOVF   2B,W
0722:  CALL   51E
0723:  MOVWF  4D
0724:  BSF    03.5
0725:  CLRF   08
0726:  BCF    03.5
0727:  MOVF   4D,W
0728:  MOVWF  08
....................   } 
0729:  RETURN
.................... } 
....................  
....................  
.................... void delay(int8 n) { 
....................     int8 i; 
....................     for(i = 0; i < n; i++) { 
*
05E7:  CLRF   4E
05E8:  MOVF   4D,W
05E9:  SUBWF  4E,W
05EA:  BTFSC  03.0
05EB:  GOTO   5EE
05EC:  INCF   4E,F
05ED:  GOTO   5E8
....................       // NOP 
....................     } 
05EE:  RETURN
.................... } 
....................  
.................... void verificabotao() { 
....................   if (!input(S4) && !unidade_ativode) { 
*
0786:  BSF    03.5
0787:  BSF    06.3
0788:  BCF    03.5
0789:  BTFSC  06.3
078A:  GOTO   78F
078B:  BTFSC  39.4
078C:  GOTO   78F
....................     unidade_ativo = 1; 
078D:  BSF    39.0
....................     unidade_ativode = 1; 
078E:  BSF    39.4
....................   } 
....................  
....................   if (!input(S3) && !dezena_ativode) { 
078F:  BSF    03.5
0790:  BSF    06.2
0791:  BCF    03.5
0792:  BTFSC  06.2
0793:  GOTO   798
0794:  BTFSC  39.5
0795:  GOTO   798
....................     dezena_ativo = 1; 
0796:  BSF    39.1
....................     dezena_ativode = 1; 
0797:  BSF    39.5
....................   } 
....................   if (!input(S2) && !centena_ativode) { 
0798:  BSF    03.5
0799:  BSF    06.1
079A:  BCF    03.5
079B:  BTFSC  06.1
079C:  GOTO   7A1
079D:  BTFSC  39.6
079E:  GOTO   7A1
....................     centena_ativo = 1; 
079F:  BSF    39.2
....................     centena_ativode = 1; 
07A0:  BSF    39.6
....................   } 
....................   if (!input(S1) && !milhar_ativode) { 
07A1:  BSF    03.5
07A2:  BSF    06.0
07A3:  BCF    03.5
07A4:  BTFSC  06.0
07A5:  GOTO   7AA
07A6:  BTFSC  39.7
07A7:  GOTO   7AA
....................     milhar_ativo = 1; 
07A8:  BSF    39.3
....................     milhar_ativode = 1; 
07A9:  BSF    39.7
....................   } 
....................  
....................   if (unidade_ativode) { 
07AA:  BTFSS  39.4
07AB:  GOTO   7B9
....................     unidade_ativodecont--; 
07AC:  MOVF   3D,W
07AD:  BTFSC  03.2
07AE:  DECF   3E,F
07AF:  DECF   3D,F
....................     if (!unidade_ativodecont) { 
07B0:  MOVF   3D,W
07B1:  IORWF  3E,W
07B2:  BTFSS  03.2
07B3:  GOTO   7B9
....................       unidade_ativodecont = contde; 
07B4:  MOVF   3B,W
07B5:  MOVWF  3E
07B6:  MOVF   3A,W
07B7:  MOVWF  3D
....................       unidade_ativode = 0; 
07B8:  BCF    39.4
....................     } 
....................   } 
....................   if (dezena_ativode) { 
07B9:  BTFSS  39.5
07BA:  GOTO   7C8
....................     dezena_ativodecont--; 
07BB:  MOVF   3F,W
07BC:  BTFSC  03.2
07BD:  DECF   40,F
07BE:  DECF   3F,F
....................     if (!dezena_ativodecont) { 
07BF:  MOVF   3F,W
07C0:  IORWF  40,W
07C1:  BTFSS  03.2
07C2:  GOTO   7C8
....................       dezena_ativodecont = contde; 
07C3:  MOVF   3B,W
07C4:  MOVWF  40
07C5:  MOVF   3A,W
07C6:  MOVWF  3F
....................       dezena_ativode = 0; 
07C7:  BCF    39.5
....................     } 
....................   } 
....................   if (centena_ativode) { 
07C8:  BTFSS  39.6
07C9:  GOTO   7D7
....................     centena_ativodecont--; 
07CA:  MOVF   41,W
07CB:  BTFSC  03.2
07CC:  DECF   42,F
07CD:  DECF   41,F
....................     if (!centena_ativodecont) { 
07CE:  MOVF   41,W
07CF:  IORWF  42,W
07D0:  BTFSS  03.2
07D1:  GOTO   7D7
....................       centena_ativodecont = contde; 
07D2:  MOVF   3B,W
07D3:  MOVWF  42
07D4:  MOVF   3A,W
07D5:  MOVWF  41
....................       centena_ativode = 0; 
07D6:  BCF    39.6
....................     } 
....................   } 
....................   if (milhar_ativode) { 
07D7:  BTFSS  39.7
07D8:  GOTO   7E6
....................     milhar_ativodecont--; 
07D9:  MOVF   43,W
07DA:  BTFSC  03.2
07DB:  DECF   44,F
07DC:  DECF   43,F
....................     if (!milhar_ativodecont) { 
07DD:  MOVF   43,W
07DE:  IORWF  44,W
07DF:  BTFSS  03.2
07E0:  GOTO   7E6
....................       milhar_ativodecont = contde; 
07E1:  MOVF   3B,W
07E2:  MOVWF  44
07E3:  MOVF   3A,W
07E4:  MOVWF  43
....................       milhar_ativode = 0; 
07E5:  BCF    39.7
....................     } 
....................   } 
07E6:  RETURN
....................  
.................... } 
....................  
.................... void verificaerro9() { 
....................   // Se a unidade está ativa e seu valor é diferente de zero, reseta o contador 
....................   if ((!unidade_ativo && unidade) || (!dezena_ativo && dezena) || (!centena_ativo && centena) || (!milhar_ativo && milhar)) { 
*
0558:  BTFSC  39.0
0559:  GOTO   55E
055A:  MOVF   2B,W
055B:  IORWF  2C,W
055C:  BTFSS  03.2
055D:  GOTO   570
055E:  BTFSC  39.1
055F:  GOTO   564
0560:  MOVF   2D,W
0561:  IORWF  2E,W
0562:  BTFSS  03.2
0563:  GOTO   570
0564:  BTFSC  39.2
0565:  GOTO   56A
0566:  MOVF   2F,W
0567:  IORWF  30,W
0568:  BTFSS  03.2
0569:  GOTO   570
056A:  BTFSC  39.3
056B:  GOTO   572
056C:  MOVF   31,W
056D:  IORWF  32,W
056E:  BTFSC  03.2
056F:  GOTO   572
....................     fase = 0; 
0570:  CLRF   34
0571:  CLRF   33
....................   } 
....................  
.................... } 
....................  
.................... void verificaerro0() { 
....................   // Se a unidade está ativa e seu valor é diferente de zero, reseta o contador 
....................   if ((!unidade_ativo && !unidade) || (!dezena_ativo && !dezena) || (!centena_ativo && !centena) || (!milhar_ativo && !milhar)) { 
0572:  BTFSC  39.0
0573:  GOTO   578
0574:  MOVF   2B,W
0575:  IORWF  2C,W
0576:  BTFSC  03.2
0577:  GOTO   58A
0578:  BTFSC  39.1
0579:  GOTO   57E
057A:  MOVF   2D,W
057B:  IORWF  2E,W
057C:  BTFSC  03.2
057D:  GOTO   58A
057E:  BTFSC  39.2
057F:  GOTO   584
0580:  MOVF   2F,W
0581:  IORWF  30,W
0582:  BTFSC  03.2
0583:  GOTO   58A
0584:  BTFSC  39.3
0585:  GOTO   58C
0586:  MOVF   31,W
0587:  IORWF  32,W
0588:  BTFSS  03.2
0589:  GOTO   58C
....................     fase = 0; 
058A:  CLRF   34
058B:  CLRF   33
....................   } 
....................  
.................... } 
....................  
....................  

Configuration Fuses:
   Word  1: 3971   XT NOWDT PUT BROWNOUT NOLVP NOCPD WRT_1000 NODEBUG NOPROTECT
